ccopy_reg
_reconstructor
p1
(c__main__
BatchedData
p2
c__builtin__
object
p3
NtRp4
(dp5
S'index'
p6
I0
sS'batched_data'
p7
(lp8
(lp9
I491162
aI551894
aI327535
aI731762
aI419852
aI213530
aI592654
aI518643
aI672170
aI680063
aI214762
aI609559
aI445709
aI605307
aI559031
aI612427
aI621783
aI735058
aI800273
aI539108
aI532512
aI784284
aI46482
aI574617
aI696245
aI173430
aI399592
aI187084
aI791478
aI239850
aI435355
aI465299
aa(lp10
I99666
aI435459
aI759001
aI610912
aI679382
aI448265
aI127944
aI799908
aI188501
aI484136
aI504556
aI786052
aI804111
aI634780
aI620351
aI716347
aI490851
aI486380
aI296528
aI64040
aI424619
aI4758
aI138611
aI352780
aI604573
aI435575
aI670919
aI524237
aI601633
aI24065
aI816015
aI285460
aa(lp11
I694660
aI171778
aI727730
aI74814
aI632169
aI211967
aI553126
aI810078
aI176576
aI816188
aI663639
aI565796
aI664205
aI544389
aI186894
aI616738
aI697241
aI550983
aI501917
aI278564
aI267547
aI576055
aI199422
aI683596
aI440597
aI792729
aI552129
aI630165
aI428951
aI817150
aI367953
aI760821
aa(lp12
I761658
aI157731
aI72517
aI807202
aI217520
aI816398
aI234855
aI115689
aI189189
aI370257
aI553177
aI298429
aI173776
aI423854
aI542958
aI262165
aI346007
aI22594
aI186743
aI775450
aI562461
aI677407
aI550284
aI52443
aI327557
aI669926
aI764461
aI249446
aI773477
aI524127
aI443813
aI532782
aa(lp13
I466804
aI705291
aI173063
aI188910
aI666560
aI789704
aI780703
aI687136
aI379570
aI99257
aI186737
aI629000
aI673265
aI174818
aI160965
aI96015
aI437528
aI107418
aI413106
aI556149
aI616464
aI736102
aI787653
aI789576
aI436918
aI436560
aI665891
aI418615
aI37238
aI755760
aI600405
aI465349
aa(lp14
I702606
aI545446
aI694330
aI436042
aI754190
aI518361
aI707180
aI549421
aI465236
aI783933
aI161519
aI609948
aI757571
aI155776
aI726874
aI816050
aI708434
aI437036
aI562065
aI704321
aI186801
aI262328
aI812485
aI406491
aI702577
aI396148
aI499933
aI600187
aI540215
aI429749
aI504838
aI504535
aa(lp15
I735666
aI531679
aI759445
aI603627
aI759444
aI187251
aI128345
aI745209
aI252854
aI677741
aI567768
aI754611
aI801717
aI258122
aI732684
aI618975
aI692395
aI664299
aI100004
aI658232
aI173754
aI714365
aI540210
aI465181
aI38540
aI594131
aI661201
aI811211
aI574171
aI6625
aI287072
aI758356
aa(lp16
I344123
aI64767
aI550208
aI524208
aI801909
aI228760
aI774056
aI673351
aI653567
aI410711
aI64430
aI603897
aI348717
aI756646
aI120331
aI418047
aI393445
aI503941
aI358578
aI161398
aI704322
aI716813
aI345973
aI362833
aI20368
aI819204
aI815598
aI485540
aI588602
aI779510
aI614934
aI86219
aa(lp17
I631331
aI616000
aI19880
aI720819
aI395068
aI588347
aI467092
aI612452
aI88023
aI620697
aI510227
aI549268
aI340826
aI588269
aI174690
aI525174
aI815532
aI795412
aI121223
aI466252
aI677487
aI391733
aI329948
aI538790
aI429844
aI570899
aI557306
aI761005
aI672134
aI468379
aI692936
aI55142
aa(lp18
I83714
aI563108
aI664479
aI296081
aI469245
aI552269
aI542296
aI720938
aI736246
aI572022
aI781407
aI409932
aI198299
aI140904
aI770916
aI601192
aI541039
aI336294
aI773998
aI407136
aI775838
aI671500
aI523785
aI483179
aI174113
aI126686
aI161520
aI217809
aI703032
aI549587
aI524013
aI745192
aasS'batch_size'
p19
I32
sb.