ccopy_reg
_reconstructor
p1
(c__main__
BatchedData
p2
c__builtin__
object
p3
NtRp4
(dp5
S'index'
p6
I0
sS'batched_data'
p7
(lp8
(lp9
I564962
aI573720
aI435575
aI678407
aI600350
aI541475
aI673351
aI609837
aI262328
aI571719
aa(lp10
I174786
aI140858
aI774056
aI234855
aI52635
aI32382
aI508405
aI676492
aI170212
aI544658
aa(lp11
I727869
aI56228
aI628877
aI467092
aI694288
aI528318
aI816183
aI543938
aI379716
aI99257
aa(lp12
I429860
aI788379
aI629519
aI631109
aI704192
aI19880
aI672170
aI523785
aI554011
aI621783
aa(lp13
I448300
aI485718
aI438687
aI433289
aI726874
aI636503
aI260368
aI174142
aI735665
aI779150
aa(lp14
I758202
aI126019
aI662279
aI435161
aI174475
aI173034
aI552977
aI107370
aI174794
aI217341
aa(lp15
I18485
aI436914
aI628488
aI123240
aI349613
aI62031
aI503605
aI438418
aI705866
aI443813
aa(lp16
I553810
aI593654
aI756295
aI320686
aI735405
aI172882
aI406574
aI662849
aI512592
aI327535
aa(lp17
I676671
aI811489
aI672861
aI771503
aI89278
aI677754
aI588112
aI800188
aI352156
aI385877
aa(lp18
I549184
aI647487
aI207289
aI728193
aI757571
aI551696
aI654866
aI195423
aI379570
aI429861
aasS'batch_size'
p19
I10
sb.