ccopy_reg
_reconstructor
p1
(c__main__
BatchedData
p2
c__builtin__
object
p3
NtRp4
(dp5
S'index'
p6
I0
sS'batched_data'
p7
(lp8
(lp9
I629001
aI524156
aI440761
aI500160
aI582788
aI754611
aI814297
aI491627
aI667089
aI664205
aI550983
aI566436
aI684880
aI553710
aI731322
aI783956
aI576641
aI541062
aI800881
aI190812
aI174225
aI1669
aI569556
aI177086
aI602542
aI804111
aI645787
aI24066
aI481722
aI524208
aI551894
aI798877
aa(lp10
I428950
aI621213
aI815024
aI735405
aI100040
aI353529
aI433227
aI589170
aI705866
aI817132
aI686355
aI250364
aI429732
aI759445
aI694330
aI732233
aI569527
aI550046
aI604731
aI486686
aI778935
aI349064
aI801909
aI704322
aI551810
aI397821
aI128705
aI438418
aI126829
aI33285
aI318891
aI764814
aa(lp11
I304499
aI447002
aI710191
aI600728
aI663369
aI630057
aI589568
aI559031
aI781961
aI745321
aI789275
aI435161
aI799414
aI692003
aI672134
aI512934
aI174784
aI189891
aI396148
aI686233
aI385722
aI810059
aI532079
aI362350
aI670919
aI734933
aI367478
aI22594
aI145858
aI100004
aI462855
aI815589
aa(lp12
I178073
aI399592
aI174453
aI602402
aI493916
aI668545
aI762067
aI329767
aI358578
aI822199
aI406946
aI597903
aI448265
aI524192
aI577941
aI590763
aI496057
aI662849
aI129408
aI180969
aI593654
aI29546
aI567685
aI490851
aI139865
aI181925
aI679503
aI619725
aI600684
aI66298
aI270617
aI574617
aa(lp13
I519869
aI545551
aI448340
aI429399
aI600260
aI742049
aI188590
aI86219
aI740954
aI195915
aI630857
aI260075
aI780703
aI704514
aI702605
aI680966
aI155776
aI429672
aI663243
aI564962
aI435635
aI688166
aI173663
aI465225
aI728193
aI818120
aI857
aI107418
aI819204
aI782718
aI630165
aI399918
aa(lp14
I710649
aI188951
aI682800
aI815503
aI24065
aI38703
aI6220
aI608677
aI731203
aI446892
aI528318
aI819949
aI436914
aI185338
aI697241
aI628845
aI770801
aI609559
aI798654
aI188501
aI649462
aI85934
aI429762
aI562756
aI754702
aI173063
aI736102
aI343652
aI435575
aI198299
aI419852
aI508405
aa(lp15
I663204
aI621211
aI525174
aI541475
aI504340
aI801675
aI331301
aI706366
aI779181
aI667067
aI686148
aI466790
aI161029
aI635039
aI817170
aI810599
aI14447
aI640631
aI754190
aI491162
aI552752
aI287072
aI472039
aI799390
aI618975
aI141999
aI127076
aI527451
aI315657
aI532512
aI679382
aI614934
aa(lp16
I496542
aI683136
aI173669
aI705320
aI593377
aI260190
aI672542
aI524117
aI548869
aI632991
aI85373
aI555069
aI773477
aI791478
aI616292
aI677407
aI687787
aI352156
aI488435
aI433289
aI525162
aI592456
aI167283
aI654925
aI661703
aI133836
aI578286
aI614185
aI213244
aI172997
aI89505
aI802260
aa(lp17
I489317
aI761587
aI566326
aI652521
aI487096
aI52634
aI816188
aI780477
aI614452
aI404798
aI466852
aI548602
aI576944
aI493604
aI174222
aI161455
aI786816
aI671087
aI234804
aI122958
aI543938
aI756657
aI413710
aI258122
aI503642
aI677059
aI440250
aI792207
aI593748
aI824222
aI486344
aI429860
aa(lp18
I663639
aI817630
aI358030
aI64430
aI672801
aI782518
aI692937
aI757065
aI139781
aI588033
aI727830
aI758370
aI33852
aI641111
aI252903
aI757306
aI635534
aI52635
aI128823
aI386490
aI780155
aI436560
aI556699
aI550906
aI551892
aI799305
aI320077
aI652437
aI138611
aI612452
aI512573
aI635119
aasS'batch_size'
p19
I32
sb.