ccopy_reg
_reconstructor
p1
(c__main__
Vocabulary
p2
c__builtin__
object
p3
NtRp4
(dp5
S'word_to_index'
p6
(dp7
S'raining'
p8
I3132
sS'yellow'
p9
I1517
sS'four'
p10
I3133
sS'woods'
p11
I3
sS'hanging'
p12
I4
sS'marching'
p13
I1519
sS'snowing'
p14
I4682
sS'sunlit'
p15
I1520
sS'deckered'
p16
I3135
sS'shaving'
p17
I4683
sS'deli'
p18
I1521
sS'dell'
p19
I1522
sS'leisurely'
p20
I3136
sS'bringing'
p21
I5
sS'flys'
p22
I712
sS'wooded'
p23
I6
sS'prize'
p24
I1523
sS'wooden'
p25
I7
sS'protest'
p26
I6034
sS'frizbee'
p27
I3137
sS'ornamental'
p28
I3138
sS'charter'
p29
I1524
sS'tired'
p30
I4684
sS'snuggles'
p31
I8
sS'ornate'
p32
I1518
sS'bacon'
p33
I4685
sS'tires'
p34
I4686
sS'elegant'
p35
I4687
sS'rusty'
p36
I3165
sS'snuggled'
p37
I9
sS'blouse'
p38
I4689
sS'admire'
p39
I285
sS'cooking'
p40
I10
sS'fingers'
p41
I4691
sS'numeral'
p42
I11
sS'crouch'
p43
I12
sS'herb'
p44
I4693
sS'here'
p45
I4694
sS'herd'
p46
I4695
sS'china'
p47
I13
sS'dorm'
p48
I1526
sS'kids'
p49
I14
sS'elaborate'
p50
I64
sS'military'
p51
I1528
sS'golden'
p52
I15
sS'projection'
p53
I16
sS'brought'
p54
I4697
sS'unit'
p55
I4698
sS'opponents'
p56
I3140
sS'geisha'
p57
I3215
sS'music'
p58
I17
sS'passport'
p59
I4700
sS'strike'
p60
I3141
sS'paperwork'
p61
I99
sS'relax'
p62
I1529
sS'successful'
p63
I1530
sS'brings'
p64
I4701
sS'glass'
p65
I4702
sS'tying'
p66
I1531
sS'midst'
p67
I3241
sS'hold'
p68
I4704
sS'locked'
p69
I18
sS'blade'
p70
I1532
sS'plunger'
p71
I3144
sS'melons'
p72
I1533
sS'household'
p73
I1534
sS'organized'
p74
I1535
sS'stoves'
p75
I1047
sS'buliding'
p76
I3145
sS'caution'
p77
I3146
sS'want'
p78
I19
sS'hog'
p79
I4705
sS'travel'
p80
I20
sS'drying'
p81
I4706
sS'feature'
p82
I3147
sS'machine'
p83
I1537
sS'how'
p84
I4707
sS'hot'
p85
I4708
sS'cheetah'
p86
I1538
sS'gaming'
p87
I1539
sS'over-sized'
p88
I21
sS'beauty'
p89
I4709
sS'cuisine'
p90
I289
sS'wrong'
p91
I147
sS'types'
p92
I3148
sS'colorfully'
p93
I24
sS'calves'
p94
I1540
sS'youths'
p95
I4710
sS'baggage'
p96
I3149
sS'keeps'
p97
I1541
sS'wing'
p98
I1542
sS'wind'
p99
I1543
sS'wine'
p100
I1544
sS'ewe'
p101
I5772
sS'wrought'
p102
I3150
sS'fir'
p103
I25
sS'fit'
p104
I26
sS'directional'
p105
I1545
sS'plantains'
p106
I3151
sS'fix'
p107
I27
sS'bulding'
p108
I28
sS'hidden'
p109
I1546
sS'slate'
p110
I3152
sS'slicing'
p111
I1547
sS'man-made'
p112
I3153
sS'slats'
p113
I3154
sS'silver'
p114
I1548
sS'headboard'
p115
I4713
sS'grasslands'
p116
I1549
sS'clothed'
p117
I1550
sS'spotless'
p118
I4714
sS'arrow'
p119
I30
sS'rink'
p120
I549
sS'series'
p121
I3155
sS'spider'
p122
I4715
sS'bowls'
p123
I1551
sS'cathedral'
p124
I4716
sS'whit'
p125
I4717
sS'message'
p126
I3650
sS'whip'
p127
I4718
sS'rv'
p128
I3156
sS'ha'
p129
I2342
sS'mason'
p130
I32
sS'rd'
p131
I3157
sS'pumpkins'
p132
I33
sS'grapes'
p133
I4719
sS'sheet'
p134
I2090
sS'knit'
p135
I1553
sS'enormous'
p136
I3158
sS'ate'
p137
I4720
sS'shelves'
p138
I4721
sS'atm'
p139
I4722
sS'takeout'
p140
I3352
sS'cucumber'
p141
I4724
sS'speeds'
p142
I3159
sS'playfully'
p143
I4725
sS'veggie'
p144
I4726
sS'shopped'
p145
I1554
sS'wash'
p146
I1555
sS'spinning'
p147
I4727
sS'bitten'
p148
I4728
sS'windmills'
p149
I248
sS'basketball'
p150
I3160
sS'renovated'
p151
I34
sS'service'
p152
I35
sS'lego'
p153
I1556
sS'returns'
p154
I4433
sS'needed'
p155
I36
sS'master'
p156
I3510
sS'blossoms'
p157
I1558
sS'legs'
p158
I1559
sS'listen'
p159
I1560
sS'cushions'
p160
I4729
sS'lunges'
p161
I3162
sS'japanese'
p162
I5501
sS'trek'
p163
I3163
sS'half-pipe'
p164
I1561
sS'tree'
p165
I3164
sS'second'
p166
I4688
sS'idly'
p167
I37
sS'trey'
p168
I279
sS'idle'
p169
I38
sS'runner'
p170
I3167
sS'boston'
p171
I4730
sS'paddles'
p172
I4731
sS'shrubs'
p173
I3168
sS'dozen'
p174
I39
sS'escalator'
p175
I3169
sS'person'
p176
I1562
sS'bleachers'
p177
I3170
sS'soaked'
p178
I3171
sS'eagerly'
p179
I1563
sS'metallic'
p180
I1564
sS'racers'
p181
I42
sS'causing'
p182
I1565
sS'doors'
p183
I3172
sS'season'
p184
I6079
sS'grips'
p185
I3173
sS'zebras'
p186
I1566
sS'object'
p187
I4732
sS'mouth'
p188
I43
sS'letter'
p189
I1567
sS'organization'
p190
I5778
sS'macbook'
p191
I4733
sS'stylized'
p192
I1273
sS'cops'
p193
I5127
sS'grove'
p194
I1568
sS'camp'
p195
I3176
sS'camo'
p196
I3177
sS'mating'
p197
I3178
sS'came'
p198
I3179
sS'saying'
p199
I46
sS'boogie'
p200
I4690
sS'departing'
p201
I1569
sS'unopened'
p202
I5651
sS'padded'
p203
I47
sS'asia'
p204
I5504
sS'recliner'
p205
I1570
sS'reclines'
p206
I1571
sS'nightstands'
p207
I1572
sS'busy'
p208
I4735
sS'lazing'
p209
I1573
sS'quaint'
p210
I3180
sS'menu'
p211
I1574
sS'bust'
p212
I4737
sS'mens'
p213
I1575
sS'theme'
p214
I1576
sS'rich'
p215
I48
sS'rice'
p216
I49
sS'plate'
p217
I50
sS'honda'
p218
I3181
sS'pocket'
p219
I3182
sS'cushion'
p220
I4739
sS'relish'
p221
I3183
sS'spilling'
p222
I3184
sS'nicely'
p223
I51
sS'tights'
p224
I4741
sS'boarder'
p225
I52
sS'dipping'
p226
I3185
sS'pretzel'
p227
I53
sS'patch'
p228
I54
sS'flanked'
p229
I1577
sS'release'
p230
I4742
sS'boarded'
p231
I55
sS'fair'
p232
I1578
sS'pads'
p233
I3186
sS'hero'
p234
I4692
sS'hammer'
p235
I3458
sS'best'
p236
I1579
sS'lots'
p237
I56
sS'sombrero'
p238
I3187
sS'rings'
p239
I3188
sS'score'
p240
I1580
sS'yogurt'
p241
I3189
sS'pirate'
p242
I1581
sS'preserve'
p243
I1582
sS'claws'
p244
I1583
sS'never'
p245
I2361
sS'nature'
p246
I57
sS'rolled'
p247
I4744
sS'toilette'
p248
I4745
sS'wth'
p249
I4746
sS'roller'
p250
I4747
sS'accident'
p251
I4748
sS'country'
p252
I3190
sS'heating'
p253
I58
sS'bodysuit'
p254
I3191
sS'pita'
p255
I4749
sS'sheepdog'
p256
I4750
sS'munches'
p257
I3192
sS'hers'
p258
I4696
sS'canyon'
p259
I1584
sS'blending'
p260
I4751
sS'humming'
p261
I59
sS'grazing'
p262
I3193
sS'pillars'
p263
I1822
sS'lighthouse'
p264
I4752
sS'skatepark'
p265
I1585
sS'union'
p266
I60
sS'.'
I61
sS'upside-down'
p267
I3194
sS'much'
p268
I62
sS'stadium'
p269
I3195
sS'fry'
p270
I63
sS'kites'
p271
I5780
sS'dots'
p272
I3196
sS'life'
p273
I1587
sS'eastern'
p274
I4754
sS'skiis'
p275
I4755
sS'worker'
p276
I3197
sS'racquets'
p277
I4756
sS'strewn'
p278
I1527
sS'child'
p279
I1589
sS'worked'
p280
I3199
sS'flooding'
p281
I4757
sS'skirts'
p282
I1591
sS'played'
p283
I4758
sS'player'
p284
I4759
sS'eighteen'
p285
I65
sS'upscale'
p286
I3200
sS'anticipating'
p287
I3201
sS'violin'
p288
I3202
sS'memorial'
p289
I67
sS'taped'
p290
I5510
sS'things'
p291
I4760
sS'toaster'
p292
I4761
sS'split'
p293
I68
sS'babies'
p294
I1592
sS'couple'
p295
I295
sS'european'
p296
I3204
sS'fairly'
p297
I1593
sS'boiled'
p298
I69
sS'tops'
p299
I1594
sS'tuna'
p300
I4763
sS'burgers'
p301
I4764
sS'plaque'
p302
I70
sS'capitol'
p303
I3205
sS'sleeps'
p304
I3206
sS'sleepy'
p305
I3207
sS'rushing'
p306
I4766
sS'lasso'
p307
I71
sS'enters'
p308
I4767
sS'ham'
p309
I72
sS'old-fashioned'
p310
I3208
sS'had'
p311
I73
sS'hay'
p312
I74
sS'easy'
p313
I4768
sS'prison'
p314
I4769
sS'duffel'
p315
I75
sS'east'
p316
I4770
sS'hat'
p317
I77
sS'casually'
p318
I1596
sS'posed'
p319
I3579
sS'possible'
p320
I1597
sS'possibly'
p321
I1598
sS'birth'
p322
I1599
sS'clustered'
p323
I78
sS'shadow'
p324
I79
sS'unique'
p325
I1600
sS'bushy'
p326
I4772
sS'county'
p327
I2365
sS'seaside'
p328
I1601
sS'pavement'
p329
I1602
sS'steps'
p330
I1603
sS'right'
p331
I4773
sS'old'
p332
I4774
sS'creek'
p333
I3209
sS'crowd'
p334
I80
sS'people'
p335
I1604
sS'crown'
p336
I81
sS'begin'
p337
I5269
sS'crows'
p338
I495
sS'billboard'
p339
I84
sS'ruffled'
p340
I4775
sS'for'
p341
I1607
sS'bottom'
p342
I85
sS'fox'
p343
I1608
sS'creative'
p344
I4776
sS'fog'
p345
I1609
sS'shaker'
p346
I3210
sS'shakes'
p347
I3211
sS'dental'
p348
I1610
sS'binder'
p349
I86
sS'starring'
p350
I87
sS'losing'
p351
I3213
sS'pliers'
p352
I3214
sS'bowing'
p353
I4777
sS'benches'
p354
I88
sS'boiling'
p355
I6085
sS'citizens'
p356
I1611
sS'o'
I4778
sS'seaplane'
p357
I4779
sS'slightly'
p358
I4780
sS'flatbread'
p359
I4781
sS'raised'
p360
I3216
sS'facility'
p361
I3217
sS'son'
p362
I3218
sS'magazines'
p363
I3219
sS'raises'
p364
I542
sS'wrap'
p365
I3220
sS'sox'
p366
I3221
sS'shoots'
p367
I89
sS'fabric'
p368
I90
sS'waits'
p369
I3222
sS'panorama'
p370
I1612
sS'altitude'
p371
I91
sS'width'
p372
I1613
sS'grasping'
p373
I92
sS'spring'
p374
I3404
sS'call'
p375
I5515
sS'avocados'
p376
I93
sS'overhand'
p377
I3224
sS'launching'
p378
I3225
sS'happy'
p379
I1616
sS'forming'
p380
I4782
sS'tigers'
p381
I1617
sS'canopies'
p382
I3227
sS'onlooker'
p383
I4783
sS'congratulations'
p384
I564
sS'inside'
p385
I3228
sS'devices'
p386
I3229
sS'lays'
p387
I1618
sS'servings'
p388
I95
sS'smashed'
p389
I96
sS'panels'
p390
I1619
sS'passenger'
p391
I97
sS'juvenile'
p392
I1621
sS'looms'
p393
I1622
sS'tournament'
p394
I1623
sS'bathrobe'
p395
I4784
sS"''"
p396
I3230
sS'sprouts'
p397
I3231
sS'dotted'
p398
I1624
sS'floor'
p399
I4785
sS'flood'
p400
I4786
sS'smell'
p401
I4787
sS'roll'
p402
I100
sS'greenery'
p403
I588
sS"'s"
p404
I3232
sS'models'
p405
I3233
sS'transported'
p406
I101
sS"'d"
p407
I3234
sS'intent'
p408
I102
sS'smelling'
p409
I103
sS'rolling'
p410
I4789
sS"'m"
p411
I3235
sS'fastened'
p412
I3236
sS'packets'
p413
I4790
sS'time'
p414
I4791
sS'push'
p415
I4792
sS'overturned'
p416
I104
sS'gown'
p417
I105
sS'childs'
p418
I106
sS'furry'
p419
I6013
sS'chain'
p420
I107
sS'burritos'
p421
I3238
sS'skate'
p422
I3239
sS'skiing'
p423
I3240
sS'trashcan'
p424
I4794
sS'chair'
p425
I108
sS'hole'
p426
I4703
sS'ware'
p427
I4795
sS'crates'
p428
I109
sS'bicycles'
p429
I3242
sS'sneakers'
p430
I3243
sS'fatigues'
p431
I4796
sS'icing'
p432
I3244
sS'gloomy'
p433
I111
sS'cooks'
p434
I112
sS'tricycle'
p435
I4798
sS'ollie'
p436
I1626
sS'leave'
p437
I3245
sS'subway'
p438
I1627
sS'teal'
p439
I1628
sS'team'
p440
I1629
sS'loads'
p441
I3246
sS'meadow'
p442
I113
sS'collage'
p443
I3247
sS'trails'
p444
I114
sS'sign'
p445
I3249
sS'chopping'
p446
I115
sS'shirts'
p447
I116
sS'adorns'
p448
I118
sS'headset'
p449
I119
sS'current'
p450
I3754
sS'lazily'
p451
I3250
sS'falling'
p452
I4800
sS'crashing'
p453
I5273
sS'celebrates'
p454
I120
sS'banister'
p455
I3759
sS'climbs'
p456
I121
sS'costumes'
p457
I5792
sS'address'
p458
I122
sS'alone'
p459
I4802
sS'along'
p460
I4803
sS'passengers'
p461
I3252
sS'gnar'
p462
I2102
sS'dusty'
p463
I123
sS'buss'
p464
I4736
sS'tasks'
p465
I3253
sS'love'
p466
I1630
sS'bloody'
p467
I1631
sS'fake'
p468
I3254
sS'traversing'
p469
I1632
sS'forefront'
p470
I1633
sS'para-sailing'
p471
I124
sS'sky'
p472
I6310
sS'crammed'
p473
I3255
sS'sunbathing'
p474
I1634
sS'working'
p475
I126
sS'wicker'
p476
I3256
sS'angry'
p477
I3257
sS'tightly'
p478
I1635
sS'films'
p479
I4804
sS'``'
p480
I1636
sS'claus'
p481
I3258
sS'tundra'
p482
I127
sS'marbled'
p483
I4805
sS'everywhere'
p484
I3259
sS'riders'
p485
I128
sS'mascot'
p486
I3260
sS'overloaded'
p487
I1638
sS'three'
p488
I5552
sS'following'
p489
I129
sS'pumpkin'
p490
I563
sS'mirrors'
p491
I130
sS'awesome'
p492
I3263
sS'parachute'
p493
I131
sS'locks'
p494
I132
sS'graduation'
p495
I5796
sS'hides'
p496
I1639
sS'allowed'
p497
I3264
sS'listens'
p498
I133
sS'winter'
p499
I1640
sS'buttered'
p500
I3265
sS'divided'
p501
I4806
sS'poking'
p502
I4807
sS'vancouver'
p503
I3266
sS'elephant'
p504
I1641
sS'divider'
p505
I4808
sS'laundry'
p506
I4809
sS'spot'
p507
I1642
sS'date'
p508
I1643
sS'such'
p509
I4810
sS'filthy'
p510
I1644
sS'lids'
p511
I720
sS'surfing'
p512
I134
sS'natural'
p513
I3267
sS'varieties'
p514
I4811
sS'wheelchair'
p515
I1645
sS'placemat'
p516
I4812
sS'st'
p517
I3268
sS'darkened'
p518
I4813
sS'truck'
p519
I4814
sS'pulled'
p520
I135
sS'kayaks'
p521
I1646
sS'flips'
p522
I3270
sS'years'
p523
I136
sS'decals'
p524
I3271
sS'course'
p525
I4816
sS'bucking'
p526
I3849
sS'solitary'
p527
I1647
sS'limbs'
p528
I3272
sS'yawning'
p529
I4817
sS'thumb'
p530
I4818
sS'accordion'
p531
I4819
sS'bagels'
p532
I1648
sS'torn'
p533
I3273
sS'attraction'
p534
I1649
sS'celebrate'
p535
I3665
sS'suspension'
p536
I137
sS'apron'
p537
I745
sS'matches'
p538
I1650
sS'records'
p539
I1651
sS'arriving'
p540
I1652
sS'twilight'
p541
I3274
sS'ketchup'
p542
I4820
sS'bowling'
p543
I1653
sS'quarter'
p544
I139
sS'repaired'
p545
I1654
sS'turtle'
p546
I4821
sS'square'
p547
I3275
sS'retrieve'
p548
I140
sS'receipt'
p549
I141
sS'entering'
p550
I143
sS'salads'
p551
I144
sS'crowding'
p552
I5521
sS'canvas'
p553
I1656
sS'container'
p554
I1657
sS'rounding'
p555
I1658
sS'contained'
p556
I1659
sS'internet'
p557
I146
sS'clowns'
p558
I6098
sS'squares'
p559
I3276
sS'dodgers'
p560
I1661
sS'quite'
p561
I4822
sS'intensely'
p562
I1662
sS'training'
p563
I4824
sS'silhouetted'
p564
I4825
sS'jetliners'
p565
I1663
sS'backside'
p566
I3277
sS'tasting'
p567
I304
sS'punk'
p568
I4826
sS'modest'
p569
I22
sS'ostrich'
p570
I1664
sS'silhouettes'
p571
I4827
sS'massive'
p572
I4828
sS'parrot'
p573
I5936
sS'clause'
p574
I4829
sS'potter'
p575
I3905
sS'walk-in'
p576
I1666
sS'one'
p577
I148
sS'spanish'
p578
I4830
sS'chubby'
p579
I1667
sS'potted'
p580
I1668
sS'open'
p581
I3278
sS'city'
p582
I3279
sS'boulevard'
p583
I3280
sS'bite'
p584
I3281
sS'indicate'
p585
I1669
sS'2'
I1670
sS'draft'
p586
I4831
sS'stuffed'
p587
I3282
sS'typing'
p588
I1671
sS'streetlight'
p589
I3283
sS'bits'
p590
I3284
sS'floppy'
p591
I3934
sS'flatscreen'
p592
I4834
sS'herds'
p593
I149
sS'parts'
p594
I748
sS'coats'
p595
I835
sS'siding'
p596
I4835
sS'trekking'
p597
I3286
sS'wandering'
p598
I150
sS'scuba'
p599
I1672
sS'san'
p600
I4836
sS'greyhound'
p601
I3287
sS'locations'
p602
I152
sS'alley'
p603
I3288
sS'sad'
p604
I4837
sS'say'
p605
I4838
sS'buried'
p606
I3289
sS'saw'
p607
I4839
sS'sat'
p608
I4840
sS'fashionable'
p609
I153
sS'aside'
p610
I4841
sS'zoo'
p611
I154
sS'note'
p612
I4843
sS'take'
p613
I1673
sS'roadside'
p614
I4844
sS'wanting'
p615
I4845
sS'butterfly'
p616
I4846
sS'handing'
p617
I4847
sS'printer'
p618
I155
sS'maneuvering'
p619
I3973
sS'opposite'
p620
I156
sS'microwaves'
p621
I1675
sS'buffet'
p622
I158
sS'printed'
p623
I159
sS'crochet'
p624
I3290
sS'knee'
p625
I4848
sS'pages'
p626
I4849
sS'bi-plane'
p627
I160
sS'lawn'
p628
I3291
sS'montage'
p629
I4850
sS'farmers'
p630
I4448
sS'sale'
p631
I4852
sS'cushioned'
p632
I4853
sS'moose'
p633
I6006
sS'ways'
p634
I6101
sS'backdrop'
p635
I4711
sS'salt'
p636
I4854
sS'accented'
p637
I4855
sS'walking'
p638
I2720
sS'grilling'
p639
I4856
sS'peaches'
p640
I3293
sS'bright'
p641
I3294
sS'slot'
p642
I4857
sS'slow'
p643
I4858
sS'slop'
p644
I4859
sS'dinette'
p645
I4860
sS'going'
p646
I4861
sS'hockey'
p647
I1677
sS'equipped'
p648
I1678
sS'robe'
p649
I1679
sS'neath'
p650
I1680
sS'suitcases'
p651
I161
sS'tilting'
p652
I162
sS'balconies'
p653
I163
sS'wheelie'
p654
I4863
sS'outlet'
p655
I4864
sS'awaiting'
p656
I164
sS'settings'
p657
I4865
sS'skyline'
p658
I4866
sS'priest'
p659
I3295
sS'snowsuit'
p660
I4867
sS'tortilla'
p661
I165
sS'where'
p662
I4868
sS'orchids'
p663
I3296
sS'artistically'
p664
I3297
sS'us'
p665
I1681
sS'dives'
p666
I1682
sS'jumped'
p667
I4869
sS'goers'
p668
I1683
sS'teacup'
p669
I4870
sS'navigates'
p670
I1684
sS'teens'
p671
I1685
sS'surfboards'
p672
I4871
sS'jumper'
p673
I4872
sS'cantaloupe'
p674
I1686
sS'checkered'
p675
I3298
sS'jobs'
p676
I4873
sS'mature'
p677
I1843
sS'vertical'
p678
I3299
sS'screen'
p679
I3300
sS'dome'
p680
I4874
sS'supermarket'
p681
I1687
sS'reigns'
p682
I1688
sS'jets'
p683
I1689
sS'mans'
p684
I3301
sS'many'
p685
I3302
sS'flipped'
p686
I167
sS's'
I168
sS'mane'
p687
I3303
sS'concentrates'
p688
I169
sS'grooming'
p689
I170
sS'expression'
p690
I1690
sS'backpack'
p691
I4712
sS'stream'
p692
I6054
sS'twin'
p693
I4069
sS'boar'
p694
I4877
sS'twig'
p695
I1691
sS'boat'
p696
I4878
sS'caring'
p697
I3304
sS'better'
p698
I5525
sS'cities'
p699
I6103
sS'teddy'
p700
I1692
sS'stretch'
p701
I4879
sS'west'
p702
I171
sS'airliner'
p703
I4881
sS'vacation'
p704
I1694
sS'breath'
p705
I1695
sS'combined'
p706
I1696
sS'reflective'
p707
I4883
sS'wants'
p708
I172
sS'lanes'
p709
I4089
sS'centerpiece'
p710
I3305
sS'photos'
p711
I173
sS'observe'
p712
I4884
sS'parasail'
p713
I1697
sS'canoes'
p714
I4885
sS'newspaper'
p715
I174
sS'spotlight'
p716
I3306
sS'shepard'
p717
I1698
sS'canoe'
p718
I4887
sS'engaged'
p719
I176
sS'technology'
p720
I177
sS'ivy'
p721
I3308
sS'cafe'
p722
I1068
sS'wrappers'
p723
I3309
sS'barbed'
p724
I3310
sS'wires'
p725
I178
sS'edges'
p726
I179
sS'barber'
p727
I3311
sS'advertisement'
p728
I181
sS'hummingbird'
p729
I3312
sS'mohawk'
p730
I3313
sS'vacant'
p731
I1699
sS'trains'
p732
I1700
sS'grumpy'
p733
I4889
sS'summer'
p734
I4890
sS'sprayed'
p735
I4891
sS'steamed'
p736
I183
sS'being'
p737
I184
sS'rest'
p738
I3314
sS'sprayer'
p739
I4892
sS'grounded'
p740
I185
sS'bricks'
p741
I4455
sS'skies'
p742
I1701
sS'skier'
p743
I1702
sS'around'
p744
I3315
sS'dark'
p745
I3316
sS'traffic'
p746
I187
sS'vacuum'
p747
I3317
sS'world'
p748
I188
sS'sails'
p749
I1844
sS'clad'
p750
I1703
sS'discarded'
p751
I4894
sS'clay'
p752
I1704
sS'claw'
p753
I1705
sS'stationary'
p754
I4895
sS'grouping'
p755
I1706
sS'seating'
p756
I189
sS'tvs'
p757
I191
sS'lobster'
p758
I3318
sS'diving'
p759
I192
sS'pickles'
p760
I3319
sS'tote'
p761
I4897
sS'substance'
p762
I3198
sS'tube'
p763
I1707
sS'nook'
p764
I4898
sS'tots'
p765
I4899
sS'exit'
p766
I4900
sS'tubs'
p767
I1708
sS'power'
p768
I4901
sS'luxurious'
p769
I194
sS'slatted'
p770
I3321
sS'stone'
p771
I4902
sS'package'
p772
I3322
sS'pelicans'
p773
I195
sS'favorite'
p774
I4903
sS'slender'
p775
I4904
sS'side'
p776
I4905
sS'act'
p777
I1709
sS'gesturing'
p778
I1710
sS'stony'
p779
I4906
sS'burning'
p780
I4907
sS'image'
p781
I1711
sS'legged'
p782
I3323
sS'homeless'
p783
I1100
sS'wade'
p784
I4909
sS'racquet'
p785
I4910
sS'her'
p786
I3324
sS'bookcases'
p787
I1712
sS'sloped'
p788
I1110
sS'lounging'
p789
I196
sS'sealed'
p790
I197
sS'slopes'
p791
I3326
sS'bubble'
p792
I198
sS'project'
p793
I4912
sS'complete'
p794
I4913
sS'gliding'
p795
I4914
sS'bundt'
p796
I1713
sS'mice'
p797
I4915
sS'with'
p798
I199
sS'cords'
p799
I2925
sS'buying'
p800
I1714
sS'handsome'
p801
I3327
sS'pull'
p802
I200
sS'dirty'
p803
I201
sS'age'
p804
I5841
sS'rust'
p805
I202
sS'aa'
p806
I1715
sS'engine'
p807
I4463
sS'ad'
p808
I1717
sS'certain'
p809
I4917
sS'accents'
p810
I4918
sS'am'
p811
I1718
sS'watches'
p812
I203
sS'an'
p813
I1719
sS'tshirt'
p814
I4919
sS'carved'
p815
I1721
sS'walks'
p816
I4920
sS'watched'
p817
I204
sS'pedestal'
p818
I3329
sS'cream'
p819
I205
sS'collie'
p820
I4921
sS'yoga'
p821
I206
sS'graduate'
p822
I4922
sS'tight'
p823
I3330
sS'beverage'
p824
I314
sS'someones'
p825
I4924
sS'puppy'
p826
I207
sS'motorcyclists'
p827
I4925
sS'beaks'
p828
I3332
sS'waving'
p829
I208
sS'herbs'
p830
I1723
sS'tricks'
p831
I209
sS'groom'
p832
I4927
sS'mask'
p833
I3333
sS'having'
p834
I3421
sS'mass'
p835
I3334
sS'motocross'
p836
I4928
sS'ceramic'
p837
I210
sS'debris'
p838
I3335
sS'tours'
p839
I4929
sS'hunting'
p840
I4930
sS'tv'
p841
I3336
sS'tp'
p842
I3337
sS'laughing'
p843
I5678
sS'to'
p844
I3338
sS'tail'
p845
I3339
sS'chewing'
p846
I3340
sS'th'
p847
I3341
sS'dressing'
p848
I1724
sS'smile'
p849
I4314
sS'roadway'
p850
I211
sS'paying'
p851
I2927
sS'returned'
p852
I3342
sS'condition'
p853
I1725
sS'cable'
p854
I3343
sS'laying'
p855
I4931
sS'joined'
p856
I3344
sS'large'
p857
I3345
sS'dinosaur'
p858
I1726
sS'sand'
p859
I212
sS'adjust'
p860
I4932
sS'harry'
p861
I3346
sS'small'
p862
I213
sS'humongous'
p863
I1727
sS'past'
p864
I214
sS'carriages'
p865
I4933
sS'displays'
p866
I215
sS'pass'
p867
I216
sS'situated'
p868
I1728
sS'trick'
p869
I3674
sS'contrails'
p870
I3347
sS'clock'
p871
I217
sS'section'
p872
I1730
sS'burgundy'
p873
I1731
sS'nurse'
p874
I1732
sS'revealing'
p875
I4934
sS'para-sail'
p876
I218
sS'full'
p877
I219
sS'hash'
p878
I220
sS'leaping'
p879
I4935
sS'hours'
p880
I1733
sS'shops'
p881
I6110
sS'pics'
p882
I1735
sS'hamster'
p883
I1736
sS'social'
p884
I4936
sS'action'
p885
I1738
sS'via'
p886
I4937
sS'followed'
p887
I1213
sS'strolling'
p888
I1739
sS'indoors'
p889
I1741
sS'pulls'
p890
I3348
sS'ridding'
p891
I1742
sS'poodle'
p892
I4938
sS'pears'
p893
I3349
sS'pitching'
p894
I1743
sS'gorgeous'
p895
I1232
sS'greasy'
p896
I2382
sS'more'
p897
I222
sS'teen'
p898
I4939
sS'door'
p899
I223
sS'alcove'
p900
I1744
sS'signpost'
p901
I4940
sS'company'
p902
I224
sS'riverbank'
p903
I1745
sS'keeping'
p904
I1746
sS'science'
p905
I1747
sS'mall'
p906
I4941
sS'learn'
p907
I225
sS'knocked'
p908
I226
sS'seagull'
p909
I227
sS'male'
p910
I4942
sS'beautiful'
p911
I1749
sS'messages'
p912
I6117
sS'bidet'
p913
I3351
sS'states'
p914
I1750
sS'station'
p915
I636
sS'dress'
p916
I4943
sS'information'
p917
I1751
sS'speedboat'
p918
I229
sS'glowing'
p919
I3353
sS'freshly'
p920
I4944
sS'hugs'
p921
I230
sS'browns'
p922
I1752
sS'unattended'
p923
I1753
sS'creature'
p924
I1754
sS'plant'
p925
I4945
sS'plans'
p926
I4946
sS'countryside'
p927
I1755
sS'plane'
p928
I4947
sS'waves'
p929
I3354
sS'backyard'
p930
I1756
sS'plank'
p931
I4948
sS'resemble'
p932
I232
sS'twisting'
p933
I233
sS'hauling'
p934
I1757
sS'volleyball'
p935
I3356
sS'wrench'
p936
I1759
sS'asparagus'
p937
I2253
sS'patio'
p938
I4949
sS'pans'
p939
I1760
sS'wooly'
p940
I234
sS'adorned'
p941
I3357
sS'mexican'
p942
I1761
sS'ith'
p943
I4950
sS'bowl'
p944
I6112
sS'trade'
p945
I4952
sS'paper'
p946
I236
sS'pane'
p947
I1762
sS'signs'
p948
I237
sS'broadway'
p949
I4953
sS'smiling'
p950
I238
sS'its'
p951
I4954
sS'roots'
p952
I239
sS'licks'
p953
I4955
sS'laces'
p954
I3358
sS'travelling'
p955
I1764
sS'sauce'
p956
I240
sS'gadget'
p957
I241
sS'frisbe'
p958
I242
sS'frisby'
p959
I243
sS'weeds'
p960
I244
sS'hotdogs'
p961
I1765
sS'lettuce'
p962
I819
sS'always'
p963
I1766
sS'swimsuit'
p964
I1767
sS'found'
p965
I3360
sS'disorganized'
p966
I1768
sS'lantern'
p967
I4957
sS'brunette'
p968
I245
sS'england'
p969
I4958
sS'upstairs'
p970
I3361
sS'rowboats'
p971
I1770
sS'really'
p972
I4959
sS'missed'
p973
I1772
sS'misses'
p974
I1773
sS'highway'
p975
I1774
sS'calzone'
p976
I247
sS'porcelain'
p977
I1775
sS'cockpit'
p978
I4961
sS'outfitted'
p979
I249
sS'rises'
p980
I3364
sS'plowing'
p981
I250
sS'pairs'
p982
I251
sS'w'
I1776
sS'bumper'
p983
I1777
sS'castle'
p984
I3366
sS'clump'
p985
I4962
sS'major'
p986
I4963
sS'number'
p987
I1778
sS'feeder'
p988
I3367
sS'gazes'
p989
I1779
sS'ironing'
p990
I4964
sS'heads'
p991
I1780
sS'guest'
p992
I3368
sS'jet'
p993
I3369
sS'warmly'
p994
I3371
sS'crop'
p995
I2676
sS'rain'
p996
I5969
sS'burrito'
p997
I2121
sS'stairs'
p998
I4965
sS'obama'
p999
I1782
sS'kreme'
p1000
I4966
sS'emirates'
p1001
I255
sS'taxis'
p1002
I3373
sS'refrigerators'
p1003
I1783
sS'mossy'
p1004
I3374
sS'pedestrian'
p1005
I3375
sS'graffiti'
p1006
I257
sS'blond'
p1007
I258
sS'sell'
p1008
I259
sS'spaghetti'
p1009
I3428
sS'self'
p1010
I260
sS'also'
p1011
I261
sS'knobs'
p1012
I3376
sS'brace'
p1013
I4968
sS'play'
p1014
I1784
sS'swiftly'
p1015
I4969
sS'plat'
p1016
I1785
sS'unused'
p1017
I4970
sS'dirtbike'
p1018
I263
sS'plan'
p1019
I1786
sS'tips'
p1020
I5506
sS'foyer'
p1021
I6122
sS'cover'
p1022
I1787
sS'barred'
p1023
I264
sS'artistic'
p1024
I4971
sS'barren'
p1025
I265
sS'barrel'
p1026
I266
sS'bulletin'
p1027
I267
sS'golf'
p1028
I3377
sS'gold'
p1029
I3378
sS'cruises'
p1030
I3379
sS'blended'
p1031
I268
sS'session'
p1032
I1790
sS'freight'
p1033
I3380
sS'blender'
p1034
I269
sS'wraps'
p1035
I271
sS'streetlights'
p1036
I272
sS'writes'
p1037
I3381
sS'clothesline'
p1038
I3382
sS'gooey'
p1039
I273
sS'captures'
p1040
I6124
sS'columns'
p1041
I1436
sS'giants'
p1042
I4974
sS'boarding'
p1043
I3924
sS'beams'
p1044
I4975
sS'sunny'
p1045
I274
sS'preparing'
p1046
I1792
sS'closely'
p1047
I1793
sS'banner'
p1048
I3383
sS'sleeve'
p1049
I1794
sS'paddling'
p1050
I4976
sS'tabby'
p1051
I4977
sS'caramel'
p1052
I275
sS'tanker'
p1053
I276
sS'approaching'
p1054
I4979
sS'set'
p1055
I1795
sS'sex'
p1056
I1796
sS'see'
p1057
I1797
sS'sea'
p1058
I1798
sS'origami'
p1059
I4980
sS'analog'
p1060
I278
sS'knees'
p1061
I4981
sS'#'
I4982
sS'movie'
p1062
I4983
sS'currently'
p1063
I4984
sS'kneeling'
p1064
I6126
sS'pickup'
p1065
I3384
sS'crosswalk'
p1066
I1799
sS'europe'
p1067
I4986
sS'sparsely'
p1068
I280
sS'last'
p1069
I281
sS'barely'
p1070
I4987
sS'multi-colored'
p1071
I1800
sS'whole'
p1072
I1801
sS'patty'
p1073
I4988
sS'load'
p1074
I4989
sS'loaf'
p1075
I4990
sS'bell'
p1076
I6236
sS'forklift'
p1077
I1802
sS'community'
p1078
I1803
sS'church'
p1079
I3386
sS'belt'
p1080
I283
sS'pallet'
p1081
I2938
sS'filth'
p1082
I1804
sS'conveyor'
p1083
I4992
sS'hitting'
p1084
I1805
sS'resting'
p1085
I3387
sS'squirrel'
p1086
I3388
sS'fire'
p1087
I1806
sS'wheeler'
p1088
I1807
sS'racer'
p1089
I3389
sS'races'
p1090
I3390
sS'sleeves'
p1091
I4994
sS'yachts'
p1092
I3930
sS'towns'
p1093
I1808
sS'flashing'
p1094
I1305
sS'handling'
p1095
I4995
sS'caged'
p1096
I284
sS'straight'
p1097
I3391
sS'knacks'
p1098
I4996
sS'sesame'
p1099
I1810
sS'pressed'
p1100
I286
sS'leaning'
p1101
I1525
sS'kissing'
p1102
I4997
sS'cages'
p1103
I287
sS'secluded'
p1104
I1811
sS'pound'
p1105
I4998
sS'ducky'
p1106
I4699
sS'calculator'
p1107
I4999
sS'ducks'
p1108
I5000
sS'triple'
p1109
I5001
sS'beautifully'
p1110
I5002
sS'coca-cola'
p1111
I1813
sS'chase'
p1112
I5003
sS'funny'
p1113
I1814
sS'decor'
p1114
I1815
sS'elevated'
p1115
I1816
sS'shorter'
p1116
I5005
sS'pecking'
p1117
I1817
sS'knitting'
p1118
I1552
sS'flooded'
p1119
I290
sS'alert'
p1120
I3392
sS'viewing'
p1121
I5007
sS'levels'
p1122
I253
sS'leaps'
p1123
I1818
sS'stack'
p1124
I5008
sS'focal'
p1125
I1819
sS'canned'
p1126
I1820
sS'picks'
p1127
I5009
sS'concrete'
p1128
I3393
sS'using'
p1129
I3394
sS'doily'
p1130
I3395
sS'forrest'
p1131
I3396
sS'drizzled'
p1132
I3397
sS'goblet'
p1133
I292
sS'advertisements'
p1134
I3398
sS'signals'
p1135
I5010
sS'grapefruit'
p1136
I5011
sS'parents'
p1137
I293
sS'location'
p1138
I1823
sS'crying'
p1139
I5012
sS'furniture'
p1140
I4483
sS'surprised'
p1141
I5013
sS'australia'
p1142
I3399
sS'emergency'
p1143
I294
sS'skateboards'
p1144
I3400
sS'private'
p1145
I2681
sS'falcon'
p1146
I4765
sS'formal'
p1147
I3402
sS'sightseeing'
p1148
I302
sS'd'
I3403
sS'underway'
p1149
I2134
sS'individuals'
p1150
I1763
sS'stylish'
p1151
I5014
sS'spins'
p1152
I296
sS'limo'
p1153
I5820
sS'towed'
p1154
I1825
sS'streamers'
p1155
I5293
sS'limb'
p1156
I3405
sS'palm'
p1157
I3406
sS'sight'
p1158
I1826
sS'curious'
p1159
I3407
sS'pale'
p1160
I3408
sS'stables'
p1161
I1827
sS'novelty'
p1162
I297
sS'temple'
p1163
I5015
sS'blackberry'
p1164
I585
sS'be'
p1165
I1829
sS'nowhere'
p1166
I5016
sS'santa'
p1167
I1830
sS'obscured'
p1168
I298
sS'by'
p1169
I1831
sS'wildlife'
p1170
I1832
sS'anything'
p1171
I1833
sS'frisbie'
p1172
I299
sS'wrinkled'
p1173
I300
sS'repair'
p1174
I5018
sS'garbage'
p1175
I5019
sS'into'
p1176
I301
sS'inspects'
p1177
I1660
sS'arcade'
p1178
I1835
sS'retrieving'
p1179
I1836
sS'spending'
p1180
I5020
sS'apartments'
p1181
I3409
sS'sock'
p1182
I306
sS'custom'
p1183
I5021
sS'occupy'
p1184
I1837
sS'suit'
p1185
I3410
sS':'
I5022
sS'opens'
p1186
I307
sS'hawaiian'
p1187
I308
sS'dummy'
p1188
I3175
sS'poster'
p1189
I3411
sS'atop'
p1190
I5023
sS't-shirt'
p1191
I3412
sS'link'
p1192
I1838
sS'competition'
p1193
I1839
sS'line'
p1194
I1840
sS'relaxes'
p1195
I1841
sS'posted'
p1196
I3413
sS'up'
p1197
I3414
sS'horned'
p1198
I1842
sS'uk'
p1199
I3415
sS'faded'
p1200
I309
sS'consumed'
p1201
I5025
sS'aerial'
p1202
I5026
sS'labrador'
p1203
I5027
sS'nighttime'
p1204
I5540
sS'pepperonis'
p1205
I3416
sS'chat'
p1206
I310
sS'sunken'
p1207
I5028
sS'fixing'
p1208
I3417
sS'tech'
p1209
I45
sS'tarp'
p1210
I5029
sS'scrub'
p1211
I5030
sS'sided'
p1212
I1845
sS'cobblestone'
p1213
I1846
sS'sides'
p1214
I4911
sS'ago'
p1215
I5031
sS'lane'
p1216
I312
sS'land'
p1217
I313
sS'fighter'
p1218
I5032
sS'pedestrians'
p1219
I3418
sS'napping'
p1220
I4916
sS'holes'
p1221
I3419
sS'walked'
p1222
I1848
sS'summit'
p1223
I1849
sS'walker'
p1224
I1850
sS'fresh'
p1225
I3420
sS'hello'
p1226
I1851
sS'partial'
p1227
I5034
sS'squats'
p1228
I1852
sS'splashing'
p1229
I315
sS'windowsill'
p1230
I316
sS'concerned'
p1231
I5036
sS'young'
p1232
I3422
sS'indicating'
p1233
I1748
sS'stocked'
p1234
I3423
sS'garden'
p1235
I1854
sS'panting'
p1236
I3424
sS'llama'
p1237
I1855
sS'mixing'
p1238
I3425
sS'practicing'
p1239
I3431
sS'decorating'
p1240
I317
sS'harbor'
p1241
I319
sS'try'
p1242
I1771
sS'race'
p1243
I3426
sS'rack'
p1244
I3427
sS'video'
p1245
I320
sS'enclosed'
p1246
I5037
sS'wheat'
p1247
I3691
sS'odd'
p1248
I4967
sS'sauerkraut'
p1249
I3429
sS'apparatus'
p1250
I5039
sS'indian'
p1251
I5040
sS'flowing'
p1252
I321
sS'bird'
p1253
I1856
sS'waling'
p1254
I1857
sS'scenery'
p1255
I5041
sS'led'
p1256
I1858
sS'leg'
p1257
I1859
sS'gathered'
p1258
I5042
sS'punch'
p1259
I3430
sS'delivering'
p1260
I5043
sS'let'
p1261
I1860
sS'backsides'
p1262
I5044
sS'great'
p1263
I5045
sS'engage'
p1264
I1861
sS'receive'
p1265
I5046
sS'derby'
p1266
I322
sS'popcorn'
p1267
I5047
sS'makes'
p1268
I323
sS'maker'
p1269
I324
sS'thats'
p1270
I325
sS'nibbling'
p1271
I326
sS'tools'
p1272
I5048
sS'standing'
p1273
I1862
sS'chocolates'
p1274
I1834
sS'bush'
p1275
I4738
sS'next'
p1276
I328
sS'eleven'
p1277
I329
sS'duplicate'
p1278
I5049
sS'pencil'
p1279
I330
sS'on'
p1280
I2947
sS'carrying'
p1281
I5050
sS'baby'
p1282
I331
sS'casserole'
p1283
I1863
sS'charity'
p1284
I5051
sS'customer'
p1285
I333
sS'balls'
p1286
I5052
sS'animals'
p1287
I5053
sS'this'
p1288
I5054
sS'athlete'
p1289
I5055
sS'thin'
p1290
I5056
sS'wedge'
p1291
I334
sS'bent'
p1292
I1864
sS'reeds'
p1293
I5058
sS'process'
p1294
I335
sS'lock'
p1295
I336
sS'billboards'
p1296
I337
sS'slim'
p1297
I3432
sS'rode'
p1298
I338
sS'pieces'
p1299
I5059
sS'high'
p1300
I1865
sS'bend'
p1301
I5057
sS'blvd'
p1302
I1866
sS'paws'
p1303
I3433
sS'docking'
p1304
I1867
sS'wares'
p1305
I5060
sS'lunchbox'
p1306
I3434
sS'animal'
p1307
I1868
sS'native'
p1308
I5827
sS'establishment'
p1309
I5061
sS'contraption'
p1310
I5062
sS'yellowish'
p1311
I5063
sS'blocks'
p1312
I1869
sS'halter'
p1313
I5064
sS'wallpaper'
p1314
I5078
sS'tied'
p1315
I5065
sS'hitched'
p1316
I5066
sS'notebook'
p1317
I1871
sS'demonstrating'
p1318
I1872
sS'tier'
p1319
I5067
sS'ties'
p1320
I5068
sS'cabbage'
p1321
I3436
sS'hawk'
p1322
I3437
sS'racks'
p1323
I5069
sS'tomato'
p1324
I3438
sS'counter'
p1325
I3439
sS'robot'
p1326
I341
sS'allow'
p1327
I1873
sS'antelope'
p1328
I3440
sS'holds'
p1329
I1087
sS'move'
p1330
I3441
sS'spatula'
p1331
I342
sS'artichoke'
p1332
I3442
sS'perfect'
p1333
I344
sS'decal'
p1334
I3443
sS'attachment'
p1335
I5829
sS'designs'
p1336
I1875
sS'knick'
p1337
I1876
sS'pick-up'
p1338
I1877
sS'dock'
p1339
I3444
sS'snake'
p1340
I1927
sS'kiss'
p1341
I1878
sS'cage'
p1342
I5072
sS'greens'
p1343
I4740
sS'glassed'
p1344
I346
sS'scenic'
p1345
I347
sS'sniffing'
p1346
I3445
sS'accompanied'
p1347
I5073
sS'beneath'
p1348
I5074
sS'stock'
p1349
I5830
sS'glasses'
p1350
I348
sS'watery'
p1351
I5831
sS'tents'
p1352
I3447
sS'bump'
p1353
I349
sS'books'
p1354
I350
sS'wander'
p1355
I1879
sS'bunched'
p1356
I1880
sS"'"
I351
sS'bunches'
p1357
I1882
sS'shut'
p1358
I5077
sS'await'
p1359
I1870
sS'graze'
p1360
I3448
sS'mid-swing'
p1361
I1883
sS'luggages'
p1362
I3449
sS'steering'
p1363
I5079
sS'scary'
p1364
I5080
sS'could'
p1365
I353
sS'length'
p1366
I354
sS'pigs'
p1367
I5081
sS'pudding'
p1368
I5158
sS'motorbikes'
p1369
I355
sS'scarf'
p1370
I5082
sS'blown'
p1371
I1885
sS'touring'
p1372
I5083
sS'jesus'
p1373
I1886
sS'fits'
p1374
I3435
sS'owner'
p1375
I1887
sS'blows'
p1376
I1888
sS'los'
p1377
I3697
sS'ordering'
p1378
I1983
sS'system'
p1379
I3451
sS'decorations'
p1380
I5084
sS'graffitied'
p1381
I3452
sS'grated'
p1382
I5304
sS'enforcement'
p1383
I358
sS'gummy'
p1384
I3453
sS'stomach'
p1385
I1987
sS'stars'
p1386
I593
sS'shorts'
p1387
I3454
sS'unoccupied'
p1388
I5086
sS'steel'
p1389
I1889
sS'steep'
p1390
I1890
sS'steer'
p1391
I1891
sS'collecting'
p1392
I3455
sS'viewer'
p1393
I5087
sS'spelled'
p1394
I1892
sS'gentle'
p1395
I3456
sS'clearly'
p1396
I1893
sS'viewed'
p1397
I5088
sS'jug'
p1398
I2951
sS'mountainous'
p1399
I359
sS'livingroom'
p1400
I3457
sS'dishes'
p1401
I360
sS'studying'
p1402
I1894
sS'waffles'
p1403
I3459
sS'demolished'
p1404
I1895
sS'korean'
p1405
I3460
sS'scooping'
p1406
I3461
sS'soap'
p1407
I1896
sS'petals'
p1408
I361
sS'device'
p1409
I5090
sS'vultures'
p1410
I5091
sS'medal'
p1411
I1897
sS'socializing'
p1412
I1898
sS'face'
p1413
I3462
sS'bins'
p1414
I4240
sS'mechanical'
p1415
I3463
sS'painting'
p1416
I3464
sS'atmosphere'
p1417
I5092
sS'remodel'
p1418
I6192
sS'woolly'
p1419
I362
sS'bring'
p1420
I3465
sS'biker'
p1421
I1899
sS'bikes'
p1422
I1900
sS'greenhouse'
p1423
I363
sS'bedroom'
p1424
I5093
sS'rough'
p1425
I5094
sS'pause'
p1426
I5095
sS'planter'
p1427
I1901
sS'jar'
p1428
I364
sS'should'
p1429
I3466
sS'buttons'
p1430
I3467
sS'planted'
p1431
I1902
sS'tape'
p1432
I367
sS'riding'
p1433
I368
sS'hope'
p1434
I1904
sS'handle'
p1435
I3468
sS'means'
p1436
I2059
sS'lucky'
p1437
I5097
sS'styrofoam'
p1438
I369
sS'hoses'
p1439
I5098
sS'stuff'
p1440
I370
sS'handstand'
p1441
I1905
sS'directs'
p1442
I343
sS'appliance'
p1443
I5306
sS'frame'
p1444
I371
sS'packet'
p1445
I3470
sS'slanted'
p1446
I1906
sS'skateboarding'
p1447
I372
sS'packed'
p1448
I3471
sS'wire'
p1449
I5100
sS'interacting'
p1450
I1907
sS'amtrak'
p1451
I1908
sS'squinting'
p1452
I1184
sS'cloudless'
p1453
I3472
sS'ends'
p1454
I3473
sS'courtyard'
p1455
I5101
sS'staring'
p1456
I373
sS'drum'
p1457
I1909
sS'ramp'
p1458
I5102
sS'rams'
p1459
I5103
sS'etc'
p1460
I5104
sS'sugared'
p1461
I1910
sS'streams'
p1462
I3474
sS'volley'
p1463
I1912
sS'ca'
p1464
I1913
sS'cd'
p1465
I1914
sS'crafted'
p1466
I1915
sS'powered'
p1467
I5106
sS'poured'
p1468
I5107
sS'chalkboard'
p1469
I3475
sS'feather'
p1470
I375
sS'waste'
p1471
I5108
sS'commuter'
p1472
I377
sS'mannequin'
p1473
I3476
sS'toasting'
p1474
I3477
sS'toiled'
p1475
I6140
sS'runway'
p1476
I3478
sS'grinning'
p1477
I5318
sS'bathtub'
p1478
I3479
sS'stuffing'
p1479
I378
sS'ripe'
p1480
I1917
sS'lush'
p1481
I1918
sS'site'
p1482
I3480
sS'hardware'
p1483
I3481
sS'vw'
p1484
I3482
sS'sits'
p1485
I3483
sS'tattoo'
p1486
I379
sS'moves'
p1487
I2145
sS'digging'
p1488
I5109
sS'glaring'
p1489
I5110
sS'ball'
p1490
I1919
sS'dusk'
p1491
I1920
sS'bale'
p1492
I1921
sS'drink'
p1493
I3484
sS'upon'
p1494
I5111
sS'surfboarding'
p1495
I1923
sS'robotic'
p1496
I1924
sS'dust'
p1497
I1925
sS'overalls'
p1498
I1926
sS'afghan'
p1499
I5112
sS'colts'
p1500
I381
sS'broccoli'
p1501
I5113
sS'mosaic'
p1502
I5114
sS'ofa'
p1503
I382
sS'off'
p1504
I383
sS'overcast'
p1505
I5115
sS'patterns'
p1506
I384
sS'350'
p1507
I3485
sS'audio'
p1508
I385
sS'drawing'
p1509
I3486
sS'bananas'
p1510
I1928
sS'less'
p1511
I5116
sS'gulls'
p1512
I5351
sS'clocks'
p1513
I386
sS'rooms'
p1514
I3487
sS'glue'
p1515
I1929
sS'web'
p1516
I387
sS'residential'
p1517
I1930
sS'cosmetics'
p1518
I5117
sS'combing'
p1519
I5118
sS'crack'
p1520
I2218
sS'government'
p1521
I3488
sS'checking'
p1522
I3489
sS'cobble'
p1523
I5551
sS'haul'
p1524
I5119
sS'five'
p1525
I5120
sS'desk'
p1526
I5121
sS'pier'
p1527
I389
sS'pies'
p1528
I390
sS'crisp'
p1529
I1932
sS'onion'
p1530
I1933
sS'chairs'
p1531
I3490
sS'garage'
p1532
I5122
sS'become'
p1533
I391
sS'habitat'
p1534
I1934
sS'polar'
p1535
I2148
sS'daylight'
p1536
I3491
sS'almonds'
p1537
I5123
sS'choosing'
p1538
I392
sS'loaded'
p1539
I3955
sS'blonde'
p1540
I394
sS'transport'
p1541
I1935
sS'hipsters'
p1542
I395
sS'bedding'
p1543
I3492
sS'fedex'
p1544
I1937
sS'does'
p1545
I5124
sS'railing'
p1546
I4681
sS'blurry'
p1547
I5125
sS'stairway'
p1548
I1938
sS'blowing'
p1549
I3493
sS'pear'
p1550
I3702
sS'includes'
p1551
I2953
sS'hiding'
p1552
I5128
sS'sister'
p1553
I1940
sS'angeles'
p1554
I5409
sS'chrome'
p1555
I1586
sS'seeds'
p1556
I1941
sS'swimming'
p1557
I396
sS'letters'
p1558
I397
sS'snuggling'
p1559
I5129
sS'roads'
p1560
I5130
sS'swimmers'
p1561
I1942
sS'brownies'
p1562
I398
sS'housing'
p1563
I1943
sS'spots'
p1564
I5131
sS'doing'
p1565
I5075
sS'toothpaste'
p1566
I1693
sS'function'
p1567
I1944
sS'delivery'
p1568
I1945
sS'lowered'
p1569
I3496
sS'grate'
p1570
I5133
sS'delivers'
p1571
I1947
sS'leashed'
p1572
I3497
sS'tossed'
p1573
I400
sS'places'
p1574
I401
sS'chained'
p1575
I5135
sS'official'
p1576
I1948
sS'umpire'
p1577
I6106
sS'placed'
p1578
I402
sS'tosses'
p1579
I403
sS'leashes'
p1580
I3498
sS'monument'
p1581
I5136
sS'bearing'
p1582
I1949
sS'int'
p1583
I3499
sS'rubble'
p1584
I3500
sS'inn'
p1585
I3501
sS'replica'
p1586
I5137
sS'ink'
p1587
I3502
sS'ina'
p1588
I3503
sS'variety'
p1589
I1950
sS'details'
p1590
I405
sS'francisco'
p1591
I4278
sS'footprints'
p1592
I1951
sS'veil'
p1593
I3505
sS'vein'
p1594
I3506
sS'exposure'
p1595
I406
sS'ghost'
p1596
I2341
sS'lift'
p1597
I1588
sS'compete'
p1598
I407
sS'rural'
p1599
I1952
sS'buoy'
p1600
I1953
sS'magnetic'
p1601
I408
sS'nursery'
p1602
I409
sS'mansion'
p1603
I3508
sS'chili'
p1604
I1590
sS'bike'
p1605
I3509
sS'ale'
p1606
I4496
sS'blanket'
p1607
I1955
sS'closeup'
p1608
I5138
sS'wagons'
p1609
I1956
sS'tagging'
p1610
I3511
sS'croissant'
p1611
I2786
sS'whisk'
p1612
I5139
sS'chew'
p1613
I3513
sS'paperback'
p1614
I5140
sS'phones'
p1615
I5141
sS'horn'
p1616
I3514
sS'chef'
p1617
I3515
sS'planters'
p1618
I5142
sS'machines'
p1619
I411
sS'near'
p1620
I1957
sS'above'
p1621
I1958
sS'toll'
p1622
I5144
sS'neat'
p1623
I2409
sS'consisting'
p1624
I5145
sS'counters'
p1625
I1959
sS'sinks'
p1626
I1960
sS'festive'
p1627
I3516
sS'wrapping'
p1628
I5146
sS'protection'
p1629
I412
sS'textured'
p1630
I1961
sS'celebration'
p1631
I1962
sS'daughter'
p1632
I3517
sS'items'
p1633
I3518
sS'study'
p1634
I3708
sS'smoke'
p1635
I1963
sS'browsing'
p1636
I3519
sS'infield'
p1637
I3520
sS'angrily'
p1638
I5148
sS'highly'
p1639
I3521
sS'lavatory'
p1640
I413
sS'bra'
p1641
I414
sS'plot'
p1642
I415
sS'plow'
p1643
I416
sS'sweater'
p1644
I2431
sS'coins'
p1645
I417
sS'bundles'
p1646
I418
sS'bundled'
p1647
I419
sS'blueberry'
p1648
I5580
sS'separated'
p1649
I420
sS'chilli'
p1650
I352
sS'award'
p1651
I3523
sS'backwards'
p1652
I1105
sS'blocking'
p1653
I421
sS'word'
p1654
I5150
sS'crest'
p1655
I1328
sS'work'
p1656
I5151
sS'worn'
p1657
I5152
sS'era'
p1658
I422
sS'blooming'
p1659
I5153
sS'elbow'
p1660
I423
sS'elegantly'
p1661
I1966
sS'volkswagon'
p1662
I5155
sS'piers'
p1663
I1967
sS'airstrip'
p1664
I5156
sS'india'
p1665
I5157
sS'indicates'
p1666
I424
sS'veggies'
p1667
I3524
sS'conditioner'
p1668
I66
sS'acrobatic'
p1669
I3525
sS'provide'
p1670
I2478
sS'nuts'
p1671
I426
sS'fondant'
p1672
I3526
sS'boats'
p1673
I1968
sS'ordinary'
p1674
I1969
sS'fudge'
p1675
I1970
sS'pizza'
p1676
I3528
sS'ladder'
p1677
I427
sS'after'
p1678
I3529
sS'damaged'
p1679
I3203
sS'lab'
p1680
I5159
sS'lay'
p1681
I5160
sS'law'
p1682
I5161
sS'arch'
p1683
I428
sS'greet'
p1684
I1972
sS'greek'
p1685
I1973
sS'sons'
p1686
I6155
sS'green'
p1687
I1974
sS'waitress'
p1688
I5854
sS'ambulance'
p1689
I5163
sS'order'
p1690
I5164
sS'salon'
p1691
I3531
sS'popsicle'
p1692
I429
sS'office'
p1693
I5165
sS'muffin'
p1694
I5166
sS'japan'
p1695
I3532
sS'nets'
p1696
I3533
sS'ticket'
p1697
I6158
sS'somewhere'
p1698
I1975
sS'recreational'
p1699
I5167
sS'avocado'
p1700
I3534
sS'carton'
p1701
I3535
sS'then'
p1702
I1976
sS'coffee'
p1703
I430
sS'thee'
p1704
I1978
sS'safe'
p1705
I431
sS'scene'
p1706
I356
sS'break'
p1707
I5168
sS'band'
p1708
I3536
sS'giraffe'
p1709
I1979
sS'sack'
p1710
I432
sS'they'
p1711
I1980
sS'bank'
p1712
I3537
sS'bread'
p1713
I5673
sS'crock'
p1714
I2546
sS'l'
I433
sS'rocks'
p1715
I3539
sS'dingy'
p1716
I434
sS'embankment'
p1717
I5169
sS'flyers'
p1718
I435
sS'feeds'
p1719
I436
sS'lifted'
p1720
I3540
sS'kneels'
p1721
I3541
sS'logs'
p1722
I3542
sS'dumping'
p1723
I437
sS'sled'
p1724
I438
sS'logo'
p1725
I3543
sS'flock'
p1726
I1981
sS'motorized'
p1727
I3544
sS'cameras'
p1728
I5171
sS'hooked'
p1729
I3545
sS'medicine'
p1730
I3546
sS'sliding'
p1731
I1982
sS'barrier'
p1732
I439
sS'middle-aged'
p1733
I3547
sS'standard'
p1734
I3548
sS'shrubbery'
p1735
I440
sS'baseman'
p1736
I441
sS'created'
p1737
I3549
sS'festival'
p1738
I357
sS'chopped'
p1739
I1984
sS'chased'
p1740
I5857
sS'another'
p1741
I443
sS'thick'
p1742
I3551
sS'electronic'
p1743
I444
sS'cooktop'
p1744
I1595
sS'elevator'
p1745
I445
sS'john'
p1746
I446
sS'dogs'
p1747
I447
sS'kiwi'
p1748
I5174
sS'emblem'
p1749
I448
sS'happily'
p1750
I3552
sS'reins'
p1751
I4503
sS'cereal'
p1752
I449
sS'chases'
p1753
I3553
sS'target'
p1754
I5176
sS'magnet'
p1755
I2459
sS'scenes'
p1756
I3554
sS'seated'
p1757
I3555
sS'historical'
p1758
I450
sS'giraffes'
p1759
I451
sS'navigate'
p1760
I3556
sS'manner'
p1761
I1986
sS'stalls'
p1762
I3557
sS'contents'
p1763
I452
sS'necktie'
p1764
I3558
sS'laden'
p1765
I3559
sS'materials'
p1766
I3967
sS'luxury'
p1767
I3560
sS'swims'
p1768
I5180
sS'circles'
p1769
I5181
sS'gravy'
p1770
I453
sS'extending'
p1771
I5182
sS'involving'
p1772
I3561
sS'grave'
p1773
I454
sS'swamp'
p1774
I2666
sS'fitted'
p1775
I5183
sS'chandelier'
p1776
I5184
sS'fisheye'
p1777
I3562
sS'toast'
p1778
I5185
sS'foraging'
p1779
I3563
sS'goalie'
p1780
I5825
sS'rectangle'
p1781
I455
sS'do'
p1782
I1988
sS'dj'
p1783
I1989
sS'hangings'
p1784
I456
sS'frowning'
p1785
I1991
sS'roundabout'
p1786
I457
sS'nasty'
p1787
I3564
sS'dr'
p1788
I1992
sS'runs'
p1789
I458
sS'covering'
p1790
I3566
sS'emo'
p1791
I459
sS'gears'
p1792
I460
sS'squadron'
p1793
I1993
sS'steal'
p1794
I5187
sS'steam'
p1795
I5188
sS'sheering'
p1796
I3567
sS'fuel'
p1797
I2313
sS'observes'
p1798
I5189
sS'lemonade'
p1799
I1994
sS'observed'
p1800
I5190
sS'cattle'
p1801
I3568
sS'hairbrush'
p1802
I461
sS'pastel'
p1803
I462
sS'draws'
p1804
I463
sS'snoozing'
p1805
I1996
sS'away'
p1806
I464
sS'gentleman'
p1807
I1997
sS'overgrown'
p1808
I5191
sS'unable'
p1809
I3569
sS'props'
p1810
I1998
sS'drawn'
p1811
I465
sS'we'
p1812
I3570
sS'handful'
p1813
I466
sS'packaged'
p1814
I1999
sS'wi'
p1815
I3571
sS'convertible'
p1816
I3572
sS'packages'
p1817
I2000
sS'kitchen'
p1818
I467
sS'cop'
p1819
I2001
sS'climate'
p1820
I468
sS'cot'
p1821
I2002
sS'cow'
p1822
I2003
sS'cob'
p1823
I2004
sS'coo'
p1824
I2005
sS'peacefully'
p1825
I5192
sS'tone'
p1826
I469
sS'royal'
p1827
I862
sS'tons'
p1828
I470
sS'4-way'
p1829
I471
sS'headlights'
p1830
I3573
sS'engines'
p1831
I5195
sS'dozens'
p1832
I2006
sS'scarecrow'
p1833
I5196
sS'families'
p1834
I2007
sS'relaxing'
p1835
I5197
sS'catering'
p1836
I5198
sS'has'
p1837
I76
sS'air'
p1838
I3574
sS'aid'
p1839
I3575
sS'vegetarian'
p1840
I3711
sS'savanna'
p1841
I3576
sS'cylinder'
p1842
I472
sS'sticker'
p1843
I5200
sS'tissue'
p1844
I473
sS'brake'
p1845
I5201
sS'cone'
p1846
I474
sS'wheeled'
p1847
I1809
sS'drawers'
p1848
I5322
sS'perform'
p1849
I3577
sS'demonstration'
p1850
I5863
sS'plated'
p1851
I2008
sS'plates'
p1852
I2009
sS'bunny'
p1853
I3578
sS'perimeter'
p1854
I5203
sS'hang'
p1855
I475
sS'evil'
p1856
I2011
sS'hand'
p1857
I476
sS'kept'
p1858
I2012
sS'condiments'
p1859
I2013
sS'compartments'
p1860
I5204
sS'contact'
p1861
I3580
sS'mamma'
p1862
I5205
sS'the'
p1863
I2014
sS'musical'
p1864
I477
sS'mingle'
p1865
I5206
sS'kale'
p1866
I3581
sS'athletic'
p1867
I3582
sS'photo'
p1868
I3583
sS'goggles'
p1869
I5207
sS'adding'
p1870
I2015
sS'poses'
p1871
I4771
sS'hills'
p1872
I2016
sS'flooring'
p1873
I2017
sS'yamaha'
p1874
I479
sS'photographer'
p1875
I5208
sS'hilly'
p1876
I2018
sS'spread'
p1877
I2019
sS'board'
p1878
I3584
sS'photographed'
p1879
I5209
sS'boxed'
p1880
I3585
sS'mayo'
p1881
I5210
sS'caps'
p1882
I2020
sS'boxes'
p1883
I3586
sS'barge'
p1884
I2021
sS'cape'
p1885
I6012
sS'hairless'
p1886
I480
sS'cooler'
p1887
I481
sS'grizzly'
p1888
I2022
sS'sparse'
p1889
I482
sS'night'
p1890
I483
sS'security'
p1891
I2023
sS'antique'
p1892
I2024
sS'manual'
p1893
I5569
sS'cookware'
p1894
I5823
sS'born'
p1895
I484
sS'confusing'
p1896
I485
sS'nuzzles'
p1897
I3587
sS'purple'
p1898
I2025
sS'filming'
p1899
I3588
sS'adorable'
p1900
I486
sS'peek'
p1901
I487
sS'peel'
p1902
I488
sS'pose'
p1903
I3589
sS'illustration'
p1904
I3590
sS'architectural'
p1905
I489
sS'peer'
p1906
I490
sS'post'
p1907
I3591
sS'trophy'
p1908
I5211
sS'breaded'
p1909
I491
sS'diner'
p1910
I2027
sS'newspapers'
p1911
I5212
sS'prepping'
p1912
I5570
sS'horizon'
p1913
I5213
sS'octopus'
p1914
I3593
sS'pineapples'
p1915
I2028
sS'mantle'
p1916
I2029
sS'float'
p1917
I3594
sS'balances'
p1918
I2030
sS'rendering'
p1919
I492
sS'capped'
p1920
I3595
sS'balanced'
p1921
I2031
sS'strangely'
p1922
I3596
sS'amidst'
p1923
I6232
sS'fight'
p1924
I2032
sS'harnessed'
p1925
I303
sS'way'
p1926
I3597
sS'wax'
p1927
I3598
sS'was'
p1928
I3599
sS'war'
p1929
I3600
sS'snowy'
p1930
I5214
sS'converse'
p1931
I3601
sS'taken'
p1932
I3602
sS'needles'
p1933
I493
sS'elderly'
p1934
I5215
sS'sailboats'
p1935
I494
sS'captive'
p1936
I83
sS'crystal'
p1937
I5216
sS'winery'
p1938
I3603
sS'coverings'
p1939
I496
sS'unusually'
p1940
I5217
sS'abstract'
p1941
I5218
sS'muscular'
p1942
I3604
sS'mousepad'
p1943
I3605
sS'dimly'
p1944
I5219
sS'dying'
p1945
I5220
sS'handmade'
p1946
I2034
sS'topped'
p1947
I3606
sS'interested'
p1948
I2035
sS'carpeting'
p1949
I2036
sS"o'clock"
p1950
I497
sS'juicer'
p1951
I3607
sS'welcome'
p1952
I3608
sS'notepad'
p1953
I2946
sS'ump'
p1954
I1606
sS'together'
p1955
I2037
sS'collared'
p1956
I3609
sS'reception'
p1957
I2038
sS'concept'
p1958
I499
sS'dance'
p1959
I5223
sS'silverware'
p1960
I500
sS'horseback'
p1961
I501
sS'daytime'
p1962
I2427
sS'battle'
p1963
I502
sS'layers'
p1964
I503
sS'touches'
p1965
I4734
sS'grape'
p1966
I2039
sS'zone'
p1967
I2040
sS'hovers'
p1968
I5224
sS'hump'
p1969
I2041
sS'flash'
p1970
I2042
sS'tusk'
p1971
I3610
sS'southwest'
p1972
I3611
sS'brown'
p1973
I5225
sS'protective'
p1974
I2043
sS'brownie'
p1975
I5226
sS'seemingly'
p1976
I5227
sS'automobiles'
p1977
I504
sS'kitten'
p1978
I2988
sS'presented'
p1979
I3612
sS'turns'
p1980
I505
sS'gun'
p1981
I506
sS'gum'
p1982
I507
sS'p'
I2044
sS'guitars'
p1983
I5228
sS'steeple'
p1984
I5229
sS'guy'
p1985
I508
sS'woven'
p1986
I3613
sS'upper'
p1987
I5231
sS'prairie'
p1988
I587
sS'cargo'
p1989
I3614
sS'appear'
p1990
I3615
sS'wildebeest'
p1991
I3616
sS'shares'
p1992
I509
sS'uniform'
p1993
I3617
sS'peels'
p1994
I510
sS'saluting'
p1995
I5232
sS'peeled'
p1996
I5233
sS'teacher'
p1997
I512
sS'change'
p1998
I2047
sS'incoming'
p1999
I3618
sS'flames'
p2000
I3619
sS'exiting'
p2001
I2048
sS'patriotic'
p2002
I5234
sS'pillow'
p2003
I514
sS'defensive'
p2004
I3212
sS'hiking'
p2005
I2049
sS'extra'
p2006
I515
sS'marked'
p2007
I5235
sS'uphill'
p2008
I516
sS'snowboard'
p2009
I2050
sS'seashore'
p2010
I2051
sS'marker'
p2011
I5236
sS'market'
p2012
I6228
sS'flavors'
p2013
I5237
sS'terminal'
p2014
I365
sS'streetcar'
p2015
I2052
sS'live'
p2016
I2053
sS'jam'
p2017
I366
sS'angels'
p2018
I5238
sS'intently'
p2019
I518
sS'entrance'
p2020
I2054
sS'countertop'
p2021
I5239
sS'club'
p2022
I5240
sS'envelope'
p2023
I5241
sS'futon'
p2024
I3620
sS'countertops'
p2025
I519
sS'cigarettes'
p2026
I6175
sS'cay'
p2027
I3621
sS'graphic'
p2028
I3050
sS'skaters'
p2029
I520
sS'decked'
p2030
I521
sS'car'
p2031
I3622
sS'cap'
p2032
I3623
sS'cat'
p2033
I3624
sS'decker'
p2034
I522
sS'labeled'
p2035
I2056
sS'gathers'
p2036
I2057
sS'can'
p2037
I3625
sS'cab'
p2038
I3626
sS'mouses'
p2039
I5242
sS'heart'
p2040
I3627
sS'grassy'
p2041
I5243
sS'pauses'
p2042
I5244
sS'chip'
p2043
I523
sS'heard'
p2044
I3628
sS'chin'
p2045
I524
sS'spa'
p2046
I2058
sS'clothing'
p2047
I3629
sS'pong'
p2048
I4514
sS'wetsuits'
p2049
I3630
sS'discussion'
p2050
I525
sS'spreads'
p2051
I526
sS'trophies'
p2052
I2060
sS'lounge'
p2053
I527
sS'product'
p2054
I528
sS'staircase'
p2055
I2061
sS'ponies'
p2056
I5247
sS'produce'
p2057
I529
sS'vases'
p2058
I530
sS'lifting'
p2059
I5249
sS'noses'
p2060
I531
sS'brussel'
p2061
I532
sS'candles'
p2062
I2063
sS'baseballs'
p2063
I2064
sS'typical'
p2064
I5250
sS'tagged'
p2065
I2065
sS'serving'
p2066
I533
sS'colt'
p2067
I2066
sS'haircut'
p2068
I2067
sS'displayed'
p2069
I3632
sS'playful'
p2070
I3633
sS'congregating'
p2071
I5251
sS'cold'
p2072
I2068
sS'cole'
p2073
I2069
sS'birds'
p2074
I2070
sS'cola'
p2075
I2071
sS'tending'
p2076
I5252
sS'rooftop'
p2077
I2072
sS'curly'
p2078
I5253
sS'holing'
p2079
I3634
sS'curls'
p2080
I5254
sS'window'
p2081
I2073
sS'artisan'
p2082
I5255
sS'non'
p2083
I535
sS'tails'
p2084
I3635
sS'slacks'
p2085
I536
sS'half'
p2086
I2074
sS'not'
p2087
I537
sS'now'
p2088
I538
sS'hall'
p2089
I2075
sS'galloping'
p2090
I539
sS'commuters'
p2091
I5574
sS'streaks'
p2092
I2076
sS'drop'
p2093
I540
sS'backsplash'
p2094
I5256
sS'cliffs'
p2095
I5257
sS'unloaded'
p2096
I541
sS'sugary'
p2097
I5258
sS'fired'
p2098
I2077
sS'directing'
p2099
I3637
sS'goose'
p2100
I2078
sS'fires'
p2101
I2079
sS'ex'
p2102
I2080
sS'year'
p2103
I543
sS'calling'
p2104
I5883
sS'monitors'
p2105
I544
sS'amusement'
p2106
I3638
sS'album'
p2107
I3639
sS'shown'
p2108
I2081
sS'opened'
p2109
I2082
sS'space'
p2110
I2083
sS'looking'
p2111
I3640
sS'navigating'
p2112
I3641
sS'side-by-side'
p2113
I3642
sS'showroom'
p2114
I5259
sS'receiving'
p2115
I2084
sS'shows'
p2116
I2085
sS'cars'
p2117
I3643
sS'cart'
p2118
I3644
sS'marina'
p2119
I5261
sS'marine'
p2120
I5262
sS'card'
p2121
I3645
sS'care'
p2122
I3142
sS'fixed'
p2123
I1122
sS'selections'
p2124
I3646
sS'british'
p2125
I3647
sS'tangled'
p2126
I546
sS'domed'
p2127
I23
sS'support'
p2128
I3223
sS'blind'
p2129
I547
sS'tennis'
p2130
I5263
sS'shears'
p2131
I5264
sS'striking'
p2132
I2086
sS'mountainside'
p2133
I29
sS'flipping'
p2134
I548
sS'directly'
p2135
I3649
sS'ring'
p2136
I550
sS'size'
p2137
I2087
sS'sheep'
p2138
I2088
sS'sheer'
p2139
I2089
sS'checked'
p2140
I3651
sS'jugs'
p2141
I2091
sS'caught'
p2142
I551
sS'breed'
p2143
I2092
sS'tusks'
p2144
I5265
sS'checker'
p2145
I3652
sS'carousel'
p2146
I2093
sS'puddle'
p2147
I3653
sS'friend'
p2148
I2094
sS'mostly'
p2149
I40
sS'that'
p2150
I41
sS'expanse'
p2151
I2095
sS'flowery'
p2152
I44
sS'thai'
p2153
I5266
sS'flowers'
p2154
I5267
sS'than'
p2155
I5268
sS'television'
p2156
I3654
sS'rugged'
p2157
I2096
sS'apples'
p2158
I552
sS'fruits'
p2159
I2097
sS'angel'
p2160
I2098
sS'slaw'
p2161
I3655
sS'distorted'
p2162
I3656
sS'breakfast'
p2163
I2099
sS'slab'
p2164
I3657
sS'offering'
p2165
I5577
sS'snout'
p2166
I553
sS'equipment'
p2167
I554
sS'telephones'
p2168
I3727
sS'topping'
p2169
I82
sS'price'
p2170
I3658
sS'neatly'
p2171
I556
sS'america'
p2172
I557
sS'tooth'
p2173
I5270
sS'sunset'
p2174
I2100
sS'clearing'
p2175
I5885
sS'professional'
p2176
I5271
sS'filing'
p2177
I5272
sS'german'
p2178
I3660
sS'fifth'
p2179
I3661
sS'ground'
p2180
I2101
sS'snack'
p2181
I560
sS'gauges'
p2182
I6172
sS'stair'
p2183
I561
sS'stained'
p2184
I3662
sS'only'
p2185
I3663
sS'stain'
p2186
I562
sS'interstate'
p2187
I3262
sS'televisions'
p2188
I3664
sS'pastrami'
p2189
I5274
sS'paneled'
p2190
I94
sS'remotes'
p2191
I2103
sS'stroll'
p2192
I565
sS'leather'
p2193
I138
sS'husband'
p2194
I2104
sS'concert'
p2195
I2105
sS'staged'
p2196
I5578
sS'anchored'
p2197
I566
sS'actively'
p2198
I567
sS'asleep'
p2199
I3666
sS'sport'
p2200
I3667
sS'glaze'
p2201
I568
sS'3'
I5275
sS'skyscraper'
p2202
I5276
sS'between'
p2203
I3668
sS'whipped'
p2204
I5277
sS'article'
p2205
I2107
sS'fliers'
p2206
I5278
sS'monk'
p2207
I3669
sS'wheels'
p2208
I5279
sS'comes'
p2209
I2110
sS'nearby'
p2210
I5280
sS'overview'
p2211
I3670
sS'jeans'
p2212
I569
sS'learning'
p2213
I190
sS'forehand'
p2214
I2111
sS'olives'
p2215
I5281
sS'cycling'
p2216
I5282
sS'tropical'
p2217
I570
sS'fours'
p2218
I3331
sS'stovetop'
p2219
I2113
sS'external'
p2220
I5283
sS'rubs'
p2221
I3671
sS'stems'
p2222
I2114
sS'foggy'
p2223
I5284
sS'skiers'
p2224
I571
sS'vespa'
p2225
I3672
sS'these'
p2226
I3673
sS'handicapped'
p2227
I5285
sS'joke'
p2228
I1129
sS'alcoholic'
p2229
I3675
sS'soil'
p2230
I2115
sS'inflatable'
p2231
I572
sS'figurines'
p2232
I573
sS'embrace'
p2233
I2116
sS'heels'
p2234
I2117
sS'return'
p2235
I6174
sS'waterway'
p2236
I574
sS'stickers'
p2237
I5286
sS'floating'
p2238
I5583
sS'media'
p2239
I2118
sS'doorway'
p2240
I374
sS'gentlemen'
p2241
I5287
sS'figurine'
p2242
I3677
sS'lite'
p2243
I3678
sS'figures'
p2244
I1911
sS'numerals'
p2245
I3362
sS'finish'
p2246
I2119
sS'closest'
p2247
I3679
sS'squatted'
p2248
I575
sS'foal'
p2249
I3363
sS'foam'
p2250
I576
sS'fruit'
p2251
I2120
sS'thrown'
p2252
I5325
sS'theater'
p2253
I252
sS'patchwork'
p2254
I254
sS'charger'
p2255
I5289
sS'breeze'
p2256
I3680
sS'otherwise'
p2257
I5888
sS'taxi'
p2258
I577
sS'livestock'
p2259
I578
sS'vent'
p2260
I5889
sS'neon'
p2261
I579
sS'foot'
p2262
I580
sS'touch'
p2263
I277
sS'speed'
p2264
I2123
sS'snowboarder'
p2265
I2124
sS'thinking'
p2266
I5290
sS'mirrored'
p2267
I3681
sS'desktop'
p2268
I282
sS'l-shaped'
p2269
I581
sS'swim'
p2270
I582
sS'propped'
p2271
I583
sS'hover'
p2272
I2125
sS'read'
p2273
I2126
sS'ruler'
p2274
I3682
sS'stools'
p2275
I3683
sS'early'
p2276
I5291
sS'overlooks'
p2277
I3684
sS'listening'
p2278
I3685
sS'stunt'
p2279
I584
sS'lady'
p2280
I2127
sS'fryer'
p2281
I5292
sS'rear'
p2282
I2128
sS'conversing'
p2283
I3686
sS'postcard'
p2284
I2129
sS'greeting'
p2285
I3687
sS't'
I3688
sS'downward'
p2286
I2130
sS'vegtables'
p2287
I3689
sS'twelve'
p2288
I586
sS'exposed'
p2289
I651
sS'yaks'
p2290
I5294
sS'dealership'
p2291
I5295
sS'forks'
p2292
I318
sS'assembly'
p2293
I589
sS'business'
p2294
I5296
sS'chefs'
p2295
I5297
sS'incline'
p2296
I6326
sS'sniffs'
p2297
I5298
sS'leftover'
p2298
I3692
sS'strainer'
p2299
I327
sS'exciting'
p2300
I590
sS'throw'
p2301
I3693
sS'central'
p2302
I332
sS'paints'
p2303
I2131
sS'choo'
p2304
I2132
sS'chop'
p2305
I2133
sS'wolf'
p2306
I3694
sS'chow'
p2307
I339
sS'processor'
p2308
I5299
sS'heater'
p2309
I2135
sS'heated'
p2310
I2136
sS'jetway'
p2311
I6177
sS'your'
p2312
I5300
sS'stare'
p2313
I591
sS'grater'
p2314
I5301
sS'log'
p2315
I3695
sS'prepare'
p2316
I2137
sS'area'
p2317
I5302
sS'removing'
p2318
I3696
sS'stark'
p2319
I3450
sS'start'
p2320
I592
sS'cats'
p2321
I5303
sS'low'
p2322
I3698
sS'lot'
p2323
I3699
sS'shower'
p2324
I3166
sS'pitcher'
p2325
I594
sS'pitches'
p2326
I595
sS'curiously'
p2327
I2138
sS'omelet'
p2328
I596
sS'cottage'
p2329
I2139
sS'pitched'
p2330
I597
sS'trying'
p2331
I2140
sS'toned'
p2332
I5305
sS'embedded'
p2333
I598
sS'bucket'
p2334
I2141
sS'tones'
p2335
I5307
sS'oxen'
p2336
I2142
sS'describe'
p2337
I376
sS'moved'
p2338
I2143
sS'sales'
p2339
I2144
sS'skateboarders'
p2340
I380
sS'cabinets'
p2341
I599
sS'antenna'
p2342
I2146
sS'storage'
p2343
I2147
sS'milking'
p2344
I3700
sS'you'
p2345
I5308
sS'poor'
p2346
I600
sS'suites'
p2347
I3701
sS'drift'
p2348
I3494
sS'peas'
p2349
I3703
sS'podium'
p2350
I3495
sS'peak'
p2351
I3704
sS'suited'
p2352
I3705
sS'pooh'
p2353
I601
sS'banners'
p2354
I4793
sS'pool'
p2355
I602
sS'building'
p2356
I5309
sS'orioles'
p2357
I6216
sS'vines'
p2358
I5310
sS'untidy'
p2359
I3706
sS'embracing'
p2360
I5311
sS'strings'
p2361
I2149
sS'roasting'
p2362
I1916
sS'skeleton'
p2363
I3707
sS'pointing'
p2364
I2150
sS'peacock'
p2365
I1625
sS'surboard'
p2366
I603
sS'mp3'
p2367
I2151
sS'messy'
p2368
I5312
sS'religious'
p2369
I604
sS'carpet'
p2370
I5313
sS'blueberries'
p2371
I5314
sS'health'
p2372
I2996
sS'washroom'
p2373
I2152
sS'very'
p2374
I2153
sS'robes'
p2375
I2154
sS'me'
p2376
I3984
sS'balancing'
p2377
I5315
sS'pasture'
p2378
I5805
sS'locomotive'
p2379
I605
sS'cookies'
p2380
I3709
sS'fence'
p2381
I5316
sS'streets'
p2382
I607
sS'nearing'
p2383
I2155
sS'casual'
p2384
I5317
sS'darkness'
p2385
I5319
sS'<EOS>'
p2386
I1
sS'loose'
p2387
I3710
sS'tracks'
p2388
I609
sS'trunk'
p2389
I5320
sS'strong'
p2390
I2157
sS'arena'
p2391
I610
sS'colored'
p2392
I2159
sS'ahead'
p2393
I2160
sS'inspired'
p2394
I611
sS'whine'
p2395
I3712
sS'creepy'
p2396
I5321
sS'soldier'
p2397
I2161
sS'amount'
p2398
I5323
sS'advertising'
p2399
I612
sS'real'
p2400
I288
sS'trainer'
p2401
I478
sS'family'
p2402
I3713
sS'bordered'
p2403
I5591
sS'toys'
p2404
I3714
sS'chunks'
p2405
I2163
sS'thatched'
p2406
I3715
sS'takes'
p2407
I3716
sS'contains'
p2408
I3717
sS'mysterious'
p2409
I3718
sS'autographs'
p2410
I5324
sS'lowering'
p2411
I613
sS'squid'
p2412
I1133
sS'propellers'
p2413
I614
sS'broke'
p2414
I2164
sS'mounted'
p2415
I3719
sS'grill'
p2416
I615
sS'nine'
p2417
I2165
sS'fronted'
p2418
I3720
sS'parasol'
p2419
I2166
sS'pushes'
p2420
I2167
sS'747'
p2421
I616
sS'pushed'
p2422
I2168
sS'cows'
p2423
I3721
sS'species'
p2424
I3722
sS'hamburgers'
p2425
I3723
sS'flatbed'
p2426
I110
sS't.v'
p2427
I2169
sS'caption'
p2428
I617
sS'chops'
p2429
I2170
sS'ostriches'
p2430
I3724
sS'chopper'
p2431
I1985
sS'tries'
p2432
I545
sS'horizontal'
p2433
I618
sS'fo'
p2434
I2171
sS'a'
I5326
sS'workstation'
p2435
I3725
sS'racetrack'
p2436
I3726
sS'chopsticks'
p2437
I619
sS'crafts'
p2438
I3728
sS'banks'
p2439
I3659
sS'breads'
p2440
I558
sS'egg'
p2441
I5327
sS'chicks'
p2442
I2172
sS'help'
p2443
I3729
sS'mid-jump'
p2444
I3730
sS'rhinos'
p2445
I2173
sS'soon'
p2446
I3731
sS'cyclists'
p2447
I2174
sS'held'
p2448
I2033
sS'mcdonalds'
p2449
I3732
sS'carpeted'
p2450
I3733
sS'heron'
p2451
I620
sS'peanuts'
p2452
I5329
sS'evening'
p2453
I621
sS'nestled'
p2454
I3676
sS'food'
p2455
I2175
sS'cel'
p2456
I623
sS'petted'
p2457
I624
sS'cupcake'
p2458
I3735
sS'starbucks'
p2459
I625
sS'sweeping'
p2460
I2177
sS'towering'
p2461
I5330
sS'fully'
p2462
I2178
sS'kayaking'
p2463
I5331
sS'stopped'
p2464
I3690
sS'fairy'
p2465
I626
sS'trailer'
p2466
I2180
sS'heavy'
p2467
I627
sS'positioned'
p2468
I3736
sS'beyond'
p2469
I5332
sS'event'
p2470
I5333
sS'travels'
p2471
I2182
sS'surrounded'
p2472
I3737
sS'safety'
p2473
I629
sS'7'
I630
sS'ass'
p2474
I606
sS'bald'
p2475
I1922
sS'protruding'
p2476
I2183
sS'dirt'
p2477
I608
sS'pug'
p2478
I2184
sS'pub'
p2479
I2185
sS'houses'
p2480
I631
sS'base'
p2481
I2186
sS'coastline'
p2482
I2187
sS'put'
p2483
I2188
sS'algae'
p2484
I3738
sS'dishwasher'
p2485
I632
sS'launch'
p2486
I3739
sS'cheering'
p2487
I2190
sS'american'
p2488
I633
sS'businessmen'
p2489
I5335
sS'automobile'
p2490
I1367
sS'doughnuts'
p2491
I3734
sS'reflected'
p2492
I2191
sS'hangs'
p2493
I4537
sS'mist'
p2494
I5336
sS'miss'
p2495
I628
sS'maple'
p2496
I3740
sS'horse'
p2497
I634
sS'blossom'
p2498
I635
sS'st.'
p2499
I5337
sS'airborne'
p2500
I2192
sS'pinned'
p2501
I5338
sS'attic'
p2502
I4973
sS'wonderful'
p2503
I3741
sS'sigh'
p2504
I3248
sS'scheme'
p2505
I3742
sS'banana'
p2506
I3743
sS'selling'
p2507
I3744
sS'passed'
p2508
I6185
sS'readies'
p2509
I6304
sS'signaling'
p2510
I3745
sS'grocery'
p2511
I5339
sS'toliet'
p2512
I3746
sS'grey'
p2513
I637
sS'photographing'
p2514
I4538
sS'bride'
p2515
I5340
sS'toward'
p2516
I638
sS'mickey'
p2517
I3747
sS'deciding'
p2518
I2194
sS'coleslaw'
p2519
I649
sS'alongside'
p2520
I5341
sS'juicy'
p2521
I2195
sS'juice'
p2522
I2196
sS'lid'
p2523
I5342
sS'lie'
p2524
I5343
sS'koala'
p2525
I3749
sS'cave'
p2526
I639
sS'officers'
p2527
I3750
sS'camouflage'
p2528
I3751
sS'lit'
p2529
I5344
sS'lip'
p2530
I5345
sS'towards'
p2531
I2197
sS'quote'
p2532
I2198
sS'bridle'
p2533
I3752
sS'eaten'
p2534
I2199
sS'mobile'
p2535
I5346
sS'clear'
p2536
I5347
sS'outhouse'
p2537
I5348
sS'clean'
p2538
I5349
sS'tubes'
p2539
I641
sS'hips'
p2540
I3753
sS'booze'
p2541
I2201
sS'stores'
p2542
I1137
sS'scooter'
p2543
I3755
sS'pretty'
p2544
I2202
sS'circle'
p2545
I5350
sS'trees'
p2546
I2203
sS'speckled'
p2547
I3756
sS'famous'
p2548
I2204
sS'pretending'
p2549
I642
sS'competing'
p2550
I643
sS'during'
p2551
I706
sS'catches'
p2552
I3757
sS'gloved'
p2553
I2205
sS'badge'
p2554
I4801
sS'witha'
p2555
I2206
sS'gloves'
p2556
I2207
sS'x'
I715
sS'throwing'
p2557
I5354
sS'<SOS>'
p2558
I0
sS'portrait'
p2559
I3837
sS'patties'
p2560
I2208
sS'pictures'
p2561
I645
sS'wok'
p2562
I2209
sS'probably'
p2563
I5355
sS'conditions'
p2564
I3760
sS'pictured'
p2565
I646
sS'missing'
p2566
I647
sS'spray'
p2567
I648
sS'readying'
p2568
I2210
sS'burned'
p2569
I4172
sS'both'
p2570
I5356
sS'eggplant'
p2571
I3762
sS'stoplight'
p2572
I2211
sS'batters'
p2573
I753
sS'headed'
p2574
I5357
sS'battery'
p2575
I2212
sS'badminton'
p2576
I2213
sS'likes'
p2577
I2214
sS'vessel'
p2578
I3764
sS'naps'
p2579
I5358
sS'damp'
p2580
I3765
sS'maintenance'
p2581
I2215
sS'territory'
p2582
I5359
sS'empty'
p2583
I650
sS'partly'
p2584
I2216
sS'packs'
p2585
I2217
sS'wet'
p2586
I388
sS'imac'
p2587
I778
sS'else'
p2588
I779
sS'loom'
p2589
I3766
sS'look'
p2590
I3767
sS'rope'
p2591
I3768
sS'pace'
p2592
I652
sS'while'
p2593
I5360
sS'smart'
p2594
I1141
sS'fleet'
p2595
I5361
sS'animated'
p2596
I5362
sS'biking'
p2597
I3770
sS'guide'
p2598
I653
sS'loop'
p2599
I3771
sS'pack'
p2600
I654
sS'embroidered'
p2601
I655
sS'reads'
p2602
I3772
sS'wildflowers'
p2603
I5364
sS'ready'
p2604
I3773
sS'fedora'
p2605
I3774
sS'makeshift'
p2606
I656
sS'grand'
p2607
I657
sS'hallway'
p2608
I5365
sS'used'
p2609
I2219
sS'temporary'
p2610
I2220
sS'curbside'
p2611
I658
sS'pomegranate'
p2612
I3775
sS'overweight'
p2613
I2221
sS'uses'
p2614
I817
sS'user'
p2615
I2222
sS'cityscape'
p2616
I2223
sS'assortment'
p2617
I3776
sS'older'
p2618
I3777
sS'docked'
p2619
I3778
sS'grind'
p2620
I2224
sS'railings'
p2621
I5832
sS'grins'
p2622
I825
sS'wedges'
p2623
I2225
sS'quarters'
p2624
I2226
sS'roasted'
p2625
I5367
sS'praying'
p2626
I2227
sS'$'
I2228
sS'canisters'
p2627
I2229
sS'cemetery'
p2628
I5368
sS'exercising'
p2629
I3780
sS'cherries'
p2630
I659
sS'remaining'
p2631
I3781
sS'march'
p2632
I2230
sS'radiator'
p2633
I855
sS'showing'
p2634
I660
sS'enthusiastically'
p2635
I2231
sS'game'
p2636
I3782
sS'motorola'
p2637
I661
sS'damage'
p2638
I1536
sS'wings'
p2639
I3783
sS'vests'
p2640
I662
sS'pillar'
p2641
I5369
sS'toyota'
p2642
I5370
sS'sofa'
p2643
I5907
sS'sleigh'
p2644
I3784
sS'saddled'
p2645
I5371
sS'parade'
p2646
I5372
sS'creation'
p2647
I2233
sS'some'
p2648
I5373
sS'lips'
p2649
I666
sS'dilapidated'
p2650
I667
sS'minimal'
p2651
I3785
sS'cgi'
p2652
I2234
sS'run'
p2653
I2235
sS'rub'
p2654
I2236
sS'rug'
p2655
I2237
sS'stem'
p2656
I3786
sS'step'
p2657
I3787
sS'assists'
p2658
I668
sS'stew'
p2659
I3788
sS'alleyway'
p2660
I2238
sS'feild'
p2661
I3789
sS'pitchers'
p2662
I2239
sS'raspberry'
p2663
I5376
sS'smothered'
p2664
I669
sS'shine'
p2665
I3790
sS'gnome'
p2666
I5377
sS'shiny'
p2667
I3792
sS'block'
p2668
I5378
sS'seeing'
p2669
I2240
sS'dude'
p2670
I3999
sS'within'
p2671
I3793
sS'tofu'
p2672
I670
sS'sprawled'
p2673
I2241
sS'rolls'
p2674
I2242
sS'placing'
p2675
I672
sS'passanger'
p2676
I2243
sS'himself'
p2677
I2244
sS'dips'
p2678
I3794
sS'specialty'
p2679
I3795
sS'properly'
p2680
I3796
sS'newer'
p2681
I933
sS'russian'
p2682
I2245
sS'peopel'
p2683
I5380
sS'skull'
p2684
I5381
sS'similar'
p2685
I673
sS'ordered'
p2686
I674
sS'adults'
p2687
I2246
sS'flush'
p2688
I393
sS'halfpipe'
p2689
I5383
sS'tongs'
p2690
I640
sS'nap'
p2691
I5384
sS'electrical'
p2692
I5385
sS'department'
p2693
I675
sS'aprons'
p2694
I676
sS'pandas'
p2695
I964
sS'smiles'
p2696
I677
sS'spectators'
p2697
I2248
sS'crouching'
p2698
I5386
sS'smiley'
p2699
I678
sS'lunging'
p2700
I5387
sS'rested'
p2701
I5388
sS'drab'
p2702
I5389
sS'structure'
p2703
I973
sS'e'
I680
sS'dvd'
p2704
I681
sS'berries'
p2705
I3797
sS'avoid'
p2706
I1936
sS'desserts'
p2707
I3798
sS'airliners'
p2708
I3799
sS'go'
p2709
I2249
sS'barbecue'
p2710
I5390
sS'compact'
p2711
I682
sS'arid'
p2712
I2250
sS'suits'
p2713
I3800
sS'shack'
p2714
I4110
sS'ripened'
p2715
I2251
sS'suite'
p2716
I4119
sS'friendly'
p2717
I684
sS'kitty'
p2718
I2252
sS'trolleys'
p2719
I5391
sS'wave'
p2720
I685
sS'wavy'
p2721
I686
sS'trough'
p2722
I3801
sS'cellular'
p2723
I3802
sS'telling'
p2724
I687
sS'exits'
p2725
I5392
sS'snowboards'
p2726
I688
sS'positions'
p2727
I689
sS'button'
p2728
I5393
sS'ornately'
p2729
I3803
sS'queen'
p2730
I5985
sS'pretend'
p2731
I3261
sS'picket'
p2732
I3804
sS'boots'
p2733
I3805
sS'waking'
p2734
I3806
sS'jump'
p2735
I691
sS'booth'
p2736
I3808
sS'picked'
p2737
I3809
sS'sausage'
p2738
I3810
sS'cupcakes'
p2739
I2255
sS'plays'
p2740
I5394
sS'paintings'
p2741
I3811
sS'soup'
p2742
I5610
sS'espresso'
p2743
I2256
sS'cell'
p2744
I5395
sS'rotten'
p2745
I2257
sS'poles'
p2746
I5396
sS'selecting'
p2747
I2258
sS'pristine'
p2748
I5397
sS';'
I2259
sS'shoreline'
p2749
I5398
sS'stance'
p2750
I2260
sS'commercial'
p2751
I3812
sS'raspberries'
p2752
I5399
sS'focused'
p2753
I2261
sS'pancake'
p2754
I692
sS'products'
p2755
I2263
sS'wig'
p2756
I3813
sS'examining'
p2757
I2264
sS'danger'
p2758
I5400
sS'pitch'
p2759
I4015
sS'win'
p2760
I3814
sS'wii'
p2761
I3815
sS'wit'
p2762
I3816
sS'singing'
p2763
I5401
sS'cloud'
p2764
I2265
sS'strapped'
p2765
I2266
sS'remains'
p2766
I3817
sS'camera'
p2767
I693
sS'crab'
p2768
I3818
sS'vehicle'
p2769
I5402
sS'stage'
p2770
I1939
sS'reflects'
p2771
I2267
sS'formally'
p2772
I694
sS'carvings'
p2773
I5403
sS'tangerine'
p2774
I5404
sS'appointed'
p2775
I695
sS'crosses'
p2776
I3819
sS'arched'
p2777
I2268
sS'announcing'
p2778
I5405
sS'females'
p2779
I3143
sS'ride'
p2780
I5406
sS'donut'
p2781
I2269
sS'arches'
p2782
I2270
sS'crossed'
p2783
I3820
sS'meet'
p2784
I698
sS'drops'
p2785
I2271
sS'control'
p2786
I5407
sS'halloween'
p2787
I2272
sS'pulling'
p2788
I699
sS'hit'
p2789
I6201
sS'skirt'
p2790
I3821
sS'stemmed'
p2791
I5408
sS'picturesque'
p2792
I700
sS'campers'
p2793
I2274
sS'arrangement'
p2794
I4241
sS'located'
p2795
I2275
sS'bandana'
p2796
I701
sS'circular'
p2797
I3823
sS'entree'
p2798
I2277
sS'farm'
p2799
I702
sS'peeling'
p2800
I703
sS'belongings'
p2801
I3824
sS'corral'
p2802
I2278
sS'scoop'
p2803
I704
sS'bakery'
p2804
I3825
sS'bakers'
p2805
I3826
sS'bathing'
p2806
I2279
sS'basement'
p2807
I5352
sS'including'
p2808
I4259
sS'costume'
p2809
I705
sS'cruise'
p2810
I5410
sS'outer'
p2811
I3827
sS'broom'
p2812
I5411
sS'notebooks'
p2813
I5412
sS'walnut'
p2814
I707
sS'youngster'
p2815
I2281
sS'sword'
p2816
I2273
sS'surrounds'
p2817
I5414
sS'auto'
p2818
I2282
sS'nokia'
p2819
I3828
sS'sweets'
p2820
I5415
sS'catcher'
p2821
I3758
sS'placid'
p2822
I3829
sS'hands'
p2823
I3830
sS'front'
p2824
I5416
sS'brocolli'
p2825
I708
sS'university'
p2826
I709
sS'slide'
p2827
I710
sS'crossing'
p2828
I3831
sS'shaking'
p2829
I3832
sS'upward'
p2830
I2284
sS'globe'
p2831
I5417
sS'multicolored'
p2832
I3833
sS'sands'
p2833
I2287
sS'measure'
p2834
I5418
sS'separating'
p2835
I711
sS'sandy'
p2836
I2288
sS'entertainment'
p2837
I713
sS'armor'
p2838
I714
sS'playground'
p2839
I5419
sS'umbrella'
p2840
I5420
sS'wines'
p2841
I5421
sS'reacts'
p2842
I2289
sS'diagonal'
p2843
I2290
sS'strap'
p2844
I4311
sS'attending'
p2845
I5422
sS'completely'
p2846
I3834
sS'ridge'
p2847
I716
sS'princess'
p2848
I5423
sS'route'
p2849
I2291
sS'florida'
p2850
I5424
sS'timer'
p2851
I717
sS'keep'
p2852
I2292
sS'wading'
p2853
I2293
sS'mad'
p2854
I4008
sS'bars'
p2855
I6203
sS'art'
p2856
I6204
sS'quality'
p2857
I5426
sS'dump'
p2858
I6205
sS'privacy'
p2859
I5427
sS'bears'
p2860
I5428
sS'data'
p2861
I3835
sS'wrapper'
p2862
I719
sS'attack'
p2863
I2295
sS'motorcyle'
p2864
I2296
sS'ankle'
p2865
I4339
sS'perfectly'
p2866
I3836
sS'tourists'
p2867
I5429
sS'paved'
p2868
I4342
sS'fuzzy'
p2869
I2297
sS'herself'
p2870
I2298
sS'waist'
p2871
I908
sS'photograph'
p2872
I2299
sS'ben'
p2873
I2300
sS'coast'
p2874
I3945
sS'bed'
p2875
I2301
sS'bee'
p2876
I2302
sS'providing'
p2877
I2303
sS'exhibit'
p2878
I2304
sS'lightly'
p2879
I2305
sS'carrots'
p2880
I2306
sS'close'
p2881
I644
sS'need'
p2882
I5434
sS'border'
p2883
I2307
sS'sings'
p2884
I1211
sS'microphone'
p2885
I5435
sS'sprinkles'
p2886
I2308
sS'cranes'
p2887
I3838
sS'able'
p2888
I5436
sS'sprinkled'
p2889
I2309
sS'so'
p2890
I3269
sS'seasonings'
p2891
I5437
sS'visor'
p2892
I2310
sS'mountaintop'
p2893
I722
sS'blades'
p2894
I723
sS'sewing'
p2895
I4842
sS'camper'
p2896
I3839
sS'biplane'
p2897
I2480
sS'connected'
p2898
I5438
sS'expired'
p2899
I3840
sS'gallery'
p2900
I724
sS'cellphone'
p2901
I725
sS'stereo'
p2902
I1233
sS'eachother'
p2903
I5439
sS'scrambled'
p2904
I5440
sS'construction'
p2905
I1946
sS'snapshot'
p2906
I3841
sS'talk'
p2907
I4013
sS'businessman'
p2908
I2311
sS'emerging'
p2909
I5441
sS'indoor'
p2910
I5442
sS'crate'
p2911
I3842
sS'parked'
p2912
I2312
sS'soldiers'
p2913
I5443
sS'shield'
p2914
I4014
sS'unfinished'
p2915
I728
sS'tire'
p2916
I3843
sS'('
I3844
sS'bases'
p2917
I3845
sS'employee'
p2918
I5445
sS'surfs'
p2919
I2314
sS'dodge'
p2920
I5446
sS'crumbling'
p2921
I2315
sS'sipping'
p2922
I5447
sS'joint'
p2923
I5448
sS'gray'
p2924
I3848
sS'trucks'
p2925
I4421
sS'overstuffed'
p2926
I1385
sS'motorboat'
p2927
I5449
sS'she'
p2928
I2316
sS'contain'
p2929
I5450
sS'uniformed'
p2930
I3850
sS'spotted'
p2931
I3851
sS'rared'
p2932
I3016
sS'hardwood'
p2933
I5451
sS'shake'
p2934
I5452
sS'humans'
p2935
I4435
sS'freeze'
p2936
I3853
sS'computer'
p2937
I5453
sS'driveway'
p2938
I3854
sS'operated'
p2939
I730
sS'tend'
p2940
I731
sS'state'
p2941
I5454
sS'flickr'
p2942
I2317
sS'tent'
p2943
I732
sS'nutritious'
p2944
I2318
sS'munching'
p2945
I2320
sS'buckets'
p2946
I3855
sS'kicking'
p2947
I733
sS'merry'
p2948
I4454
sS'group'
p2949
I5456
sS'hits'
p2950
I735
sS'sniff'
p2951
I736
sS'condiment'
p2952
I5918
sS'aqua'
p2953
I5457
sS'jersey'
p2954
I2321
sS'bricked'
p2955
I5458
sS'polka'
p2956
I737
sS'nurses'
p2957
I404
sS'slowly'
p2958
I3856
sS'treat'
p2959
I5459
sS'yak'
p2960
I3857
sS'hauls'
p2961
I5288
sS'shoulders'
p2962
I738
sS'pic'
p2963
I5920
sS'controlled'
p2964
I739
sS'league'
p2965
I3858
sS'releasing'
p2966
I2322
sS'pie'
p2967
I5921
sS'controller'
p2968
I741
sS'kicks'
p2969
I2323
sS'smoking'
p2970
I742
sS'novel'
p2971
I2324
sS'chalk'
p2972
I5460
sS'toothbrushes'
p2973
I743
sS'examines'
p2974
I744
sS'surface'
p2975
I746
sS'swinging'
p2976
I3859
sS'lambs'
p2977
I2325
sS'capture'
p2978
I3860
sS'balloon'
p2979
I5461
sS'strange'
p2980
I3861
sS'speaker'
p2981
I749
sS'baord'
p2982
I5462
sS'underground'
p2983
I3862
sS'party'
p2984
I750
sS'fireman'
p2985
I5464
sS'effect'
p2986
I5465
sS'reflection'
p2987
I2326
sS'i'
I2327
sS'obstacles'
p2988
I5467
sS'well'
p2989
I3863
sS'awning'
p2990
I4266
sS'advertises'
p2991
I752
sS'taller'
p2992
I2328
sS'savannah'
p2993
I5468
sS'distant'
p2994
I754
sS'parchment'
p2995
I755
sS'drive'
p2996
I3292
sS'barefooted'
p2997
I5469
sS'extends'
p2998
I2329
sS'balloons'
p2999
I756
sS'kick'
p3000
I2330
sS'oar'
p3001
I757
sS'crushed'
p3002
I5470
sS'historic'
p3003
I2331
sS'unseen'
p3004
I5471
sS'propeller'
p3005
I758
sS'intersection'
p3006
I759
sS'prominent'
p3007
I2332
sS'lincoln'
p3008
I760
sS'lost'
p3009
I761
sS'sizes'
p3010
I2333
sS'clown'
p3011
I3864
sS'controllers'
p3012
I2335
sS'page'
p3013
I3865
sS'shed'
p3014
I5472
sS'glare'
p3015
I762
sS'library'
p3016
I763
sS'frisbee'
p3017
I3504
sS'home'
p3018
I764
sS'competitor'
p3019
I3866
sS'steaming'
p3020
I765
sS'broad'
p3021
I4598
sS'kettle'
p3022
I5473
sS'grinding'
p3023
I766
sS'fountain'
p3024
I5334
sS'?'
I3867
sS'coated'
p3025
I3868
sS'medieval'
p3026
I2336
sS'reaching'
p3027
I767
sS'goatee'
p3028
I3869
sS'cleans'
p3029
I5474
sS'rodeo'
p3030
I5475
sS'toppings'
p3031
I5476
sS'beige'
p3032
I3870
sS'cranberry'
p3033
I3871
sS'puppies'
p3034
I3872
sS'tongue'
p3035
I3873
sS'pastries'
p3036
I3874
sS'raquet'
p3037
I3875
sS'washington'
p3038
I3876
sS'mushrooms'
p3039
I2337
sS'congregate'
p3040
I2338
sS'utility'
p3041
I5479
sS'urinal'
p3042
I2176
sS'additional'
p3043
I768
sS'whom'
p3044
I6215
sS'museum'
p3045
I5481
sS'inner'
p3046
I2339
sS'backhand'
p3047
I2340
sS'cricket'
p3048
I5482
sS'north'
p3049
I4634
sS'triangular'
p3050
I769
sS'fountains'
p3051
I770
sS'neutral'
p3052
I3877
sS'strawberries'
p3053
I771
sS'courts'
p3054
I3878
sS'ear'
p3055
I3879
sS'eat'
p3056
I3880
sS'he'
p3057
I2343
sS'signed'
p3058
I5484
sS'carriage'
p3059
I2344
sS'converted'
p3060
I5485
sS'stories'
p3061
I4235
sS'piece'
p3062
I5486
sS'display'
p3063
I772
sS'marketplace'
p3064
I773
sS'tissues'
p3065
I3881
sS'urns'
p3066
I2346
sS'utensils'
p3067
I4654
sS'balcony'
p3068
I2347
sS'ingredients'
p3069
I4667
sS'fencing'
p3070
I5488
sS'star'
p3071
I775
sS'stay'
p3072
I776
sS'foil'
p3073
I777
sS'nintendo'
p3074
I2348
sS'friends'
p3075
I3882
sS'samsung'
p3076
I780
sS'portion'
p3077
I5489
sS'powdery'
p3078
I3883
sS'straws'
p3079
I2349
sS'asian'
p3080
I3884
sS'consists'
p3081
I781
sS'captain'
p3082
I5490
sS'whose'
p3083
I3885
sS'fronts'
p3084
I2350
sS'swan'
p3085
I782
sS'remodeled'
p3086
I2351
sS'seriously'
p3087
I145
sS'presents'
p3088
I5491
sS'teaching'
p3089
I5492
sS'updated'
p3090
I5493
sS'cruising'
p3091
I5494
sS'rescue'
p3092
I2352
sS'guardrail'
p3093
I5495
sS'railways'
p3094
I2353
sS'vase'
p3095
I3886
sS'vast'
p3096
I3887
sS'alpine'
p3097
I2354
sS'baking'
p3098
I3888
sS'crops'
p3099
I783
sS'convenience'
p3100
I5497
sS'employees'
p3101
I5558
sS'uncooked'
p3102
I2355
sS'heading'
p3103
I2356
sS'clothes'
p3104
I2357
sS'force'
p3105
I5498
sS'quilt'
p3106
I5499
sS'warns'
p3107
I5500
sS'lavender'
p3108
I2358
sS'cactus'
p3109
I5502
sS'even'
p3110
I5503
sS'meals'
p3111
I1847
sS'bikini'
p3112
I3769
sS'hazy'
p3113
I3889
sS'lights'
p3114
I5505
sS'foodstuffs'
p3115
I784
sS'new'
p3116
I2359
sS'net'
p3117
I2360
sS'ever'
p3118
I5507
sS'helmets'
p3119
I785
sS'pancakes'
p3120
I5508
sS'men'
p3121
I786
sS'disposable'
p3122
I787
sS'active'
p3123
I5509
sS'cardboard'
p3124
I2362
sS'dry'
p3125
I3891
sS'rests'
p3126
I3892
sS'piercing'
p3127
I2363
sS'credit'
p3128
I3893
sS'parasailer'
p3129
I2364
sS'besides'
p3130
I4823
sS'campaign'
p3131
I5511
sS'slices'
p3132
I788
sS'sliced'
p3133
I789
sS'busses'
p3134
I2366
sS'guests'
p3135
I790
sS'jackets'
p3136
I791
sS'landscape'
p3137
I5512
sS'army'
p3138
I5513
sS'watering'
p3139
I3894
sS'arms'
p3140
I5514
sS'overhead'
p3141
I1614
sS'calm'
p3142
I5516
sS'type'
p3143
I2367
sS'tell'
p3144
I2368
sS'calf'
p3145
I5517
sS'wars'
p3146
I4788
sS'warm'
p3147
I3895
sS'adult'
p3148
I3896
sS'aligned'
p3149
I3897
sS'pride'
p3150
I3898
sS'room'
p3151
I792
sS'setup'
p3152
I3899
sS'roof'
p3153
I2109
sS'movies'
p3154
I793
sS'rim'
p3155
I6218
sS'foliage'
p3156
I2369
sS'root'
p3157
I794
sS'vodka'
p3158
I5519
sS'squirting'
p3159
I2371
sS'give'
p3160
I2372
sS'dividers'
p3161
I795
sS'laughs'
p3162
I1637
sS'honey'
p3163
I5520
sS'foods'
p3164
I796
sS'shelving'
p3165
I797
sS'amazing'
p3166
I798
sS'butting'
p3167
I2373
sS'scooters'
p3168
I3900
sS'aboard'
p3169
I1432
sS'briefcase'
p3170
I1655
sS'undergoing'
p3171
I5522
sS'waterfront'
p3172
I3901
sS'president'
p3173
I3902
sS'shirt'
p3174
I1395
sS'purchase'
p3175
I5523
sS'attempt'
p3176
I3903
sS'third'
p3177
I799
sS'descends'
p3178
I800
sS'defaced'
p3179
I801
sS'checkerboard'
p3180
I802
sS'athletes'
p3181
I4851
sS'deck'
p3182
I1676
sS'keyboard'
p3183
I2374
sS'windshield'
p3184
I803
sS'before'
p3185
I804
sS'chihuahua'
p3186
I3904
sS'personal'
p3187
I805
sS'soaking'
p3188
I2375
sS','
I5524
sS'crew'
p3189
I806
sS'sprays'
p3190
I807
sS'differently'
p3191
I5526
sS'combination'
p3192
I808
sS'glazed'
p3193
I809
sS'meat'
p3194
I3906
sS'airfrance'
p3195
I3907
sS'leaned'
p3196
I5527
sS'roast'
p3197
I3908
sS'went'
p3198
I5528
sS'higher'
p3199
I1396
sS'meal'
p3200
I3909
sS'bone'
p3201
I3910
sS'mean'
p3202
I3911
sS'calmly'
p3203
I811
sS'adobe'
p3204
I2376
sS'covered'
p3205
I6269
sS'enthusiasts'
p3206
I2377
sS'navy'
p3207
I3912
sS'dawn'
p3208
I2378
sS'sking'
p3209
I812
sS'enclosure'
p3210
I2379
sS'velvet'
p3211
I3913
sS'content'
p3212
I5529
sS'surprise'
p3213
I2380
sS'kiwis'
p3214
I3914
sS'grease'
p3215
I2381
sS'turning'
p3216
I5530
sS'u.s.'
p3217
I813
sS'ascending'
p3218
I814
sS'flows'
p3219
I4569
sS'hoodie'
p3220
I815
sS'blinders'
p3221
I816
sS'aisle'
p3222
I2383
sS'shaggy'
p3223
I5531
sS'starts'
p3224
I5532
sS'dragging'
p3225
I5806
sS'firetrucks'
p3226
I3915
sS'murky'
p3227
I4033
sS'moving'
p3228
I6221
sS'boarders'
p3229
I818
sS'cleaning'
p3230
I5366
sS'features'
p3231
I3916
sS'grade'
p3232
I5533
sS'hoop'
p3233
I2384
sS'walkers'
p3234
I3917
sS'hook'
p3235
I2385
sS'featured'
p3236
I3918
sS'floors'
p3237
I4956
sS'comforter'
p3238
I3919
sS'ditch'
p3239
I3920
sS'hood'
p3240
I2386
sS'<UNK>'
p3241
I2
sS'hydrant'
p3242
I2387
sS'spinach'
p3243
I5534
sS'girls'
p3244
I2388
sS'twisted'
p3245
I5535
sS'boating'
p3246
I5536
sS'hollywood'
p3247
I3921
sS'bouncing'
p3248
I3922
sS'gym'
p3249
I3923
sS'shoppers'
p3250
I4832
sS'somewhat'
p3251
I5537
sS'stocking'
p3252
I2389
sS'begins'
p3253
I820
sS'distance'
p3254
I3925
sS'structures'
p3255
I4833
sS'preparation'
p3256
I3926
sS'silly'
p3257
I5538
sS'mini'
p3258
I3927
sS'sees'
p3259
I3928
sS'palace'
p3260
I821
sS'chickens'
p3261
I4573
sS'modern'
p3262
I3929
sS'ginger'
p3263
I822
sS'seed'
p3264
I3931
sS'seen'
p3265
I3932
sS'seem'
p3266
I3933
sS'mint'
p3267
I5004
sS'tells'
p3268
I823
sS'stoplights'
p3269
I824
sS'panda'
p3270
I410
sS'chest'
p3271
I5105
sS'panties'
p3272
I5539
sS'davidson'
p3273
I3935
sS'buggies'
p3274
I2390
sS'mashed'
p3275
I3936
sS'memorabilia'
p3276
I5017
sS'regular'
p3277
I3937
sS'assisting'
p3278
I5024
sS'observation'
p3279
I826
sS'medical'
p3280
I2391
sS'm'
I3939
sS'dog'
p3281
I3940
sS'competitors'
p3282
I827
sS'points'
p3283
I2392
sS'pointy'
p3284
I2393
sS'dot'
p3285
I3941
sS'visitor'
p3286
I2394
sS'attempts'
p3287
I5541
sS'stepping'
p3288
I5542
sS'folded'
p3289
I2395
sS'sugar'
p3290
I3942
sS'celery'
p3291
I829
sS'folks'
p3292
I3943
sS'folder'
p3293
I2396
sS'wearing'
p3294
I5543
sS'tiles'
p3295
I3944
sS'colorful'
p3296
I5544
sS'stop'
p3297
I2397
sS'appetizer'
p3298
I830
sS'watermelon'
p3299
I831
sS'tiled'
p3300
I3946
sS'pallets'
p3301
I832
sS'bat'
p3302
I5545
sS'bar'
p3303
I5546
sS'fields'
p3304
I2398
sS'bay'
p3305
I5547
sS'bag'
p3306
I5548
sS'bad'
p3307
I1881
sS'discs'
p3308
I3947
sS'architecture'
p3309
I5076
sS'grilled'
p3310
I3948
sS'ears'
p3311
I833
sS'lettering'
p3312
I834
sS'fluffy'
p3313
I3949
sS'testing'
p3314
I5085
sS'zones'
p3315
I2399
sS'tile'
p3316
I2473
sS'sail'
p3317
I5549
sS'shaved'
p3318
I5550
sS'artificial'
p3319
I836
sS'wetsuit'
p3320
I3950
sS'olympics'
p3321
I1903
sS'pets'
p3322
I5096
sS'sorts'
p3323
I2401
sS'lazy'
p3324
I5099
sS'wears'
p3325
I837
sS'lotion'
p3326
I838
sS'picking'
p3327
I2402
sS'maneuvers'
p3328
I3951
sS'against'
p3329
I3952
sS'cuddles'
p3330
I6088
sS'bookcase'
p3331
I5147
sS'winnie'
p3332
I1931
sS'coconut'
p3333
I2505
sS'height'
p3334
I3954
sS'hygiene'
p3335
I2403
sS'lanterns'
p3336
I840
sS'springs'
p3337
I2404
sS'tins'
p3338
I841
sS'puts'
p3339
I842
sS'dusting'
p3340
I2405
sS'parsley'
p3341
I843
sS'tiny'
p3342
I844
sS'interest'
p3343
I5132
sS'basic'
p3344
I845
sS'basil'
p3345
I846
sS'basin'
p3346
I5134
sS'lovely'
p3347
I847
sS'threw'
p3348
I5553
sS'mushroom'
p3349
I5554
sS'turned'
p3350
I151
sS'sunshine'
p3351
I2406
sS'tank'
p3352
I2407
sS'reddish'
p3353
I5555
sS'ugly'
p3354
I849
sS'lizard'
p3355
I2408
sS'melted'
p3356
I5143
sS'ceilings'
p3357
I850
sS'aeroplane'
p3358
I5556
sS'balance'
p3359
I5557
sS'anchor'
p3360
I2410
sS'seven'
p3361
I851
sS'cane'
p3362
I852
sS'metropolitan'
p3363
I2411
sS'is'
p3364
I2412
sS'sushi'
p3365
I5559
sS'it'
p3366
I2413
sS'ii'
p3367
I1965
sS'cant'
p3368
I853
sS'cans'
p3369
I854
sS'in'
p3370
I2414
sS'mouse'
p3371
I3957
sS'if'
p3372
I2415
sS'grown'
p3373
I5560
sS'bottles'
p3374
I2416
sS'occupied'
p3375
I5631
sS'make'
p3376
I3958
sS'polaroid'
p3377
I3959
sS'bottled'
p3378
I2417
sS'belly'
p3379
I3960
sS'vegetable'
p3380
I5561
sS'filtered'
p3381
I3961
sS'sidelines'
p3382
I2418
sS'grows'
p3383
I5562
sS'bells'
p3384
I5170
sS'bearded'
p3385
I856
sS't-ball'
p3386
I2419
sS'kit'
p3387
I3962
sS'waterfall'
p3388
I2420
sS'garlic'
p3389
I3963
sS'kid'
p3390
I3964
sS'butter'
p3391
I3965
sS'smokes'
p3392
I5563
sS'bedspread'
p3393
I3966
sS'practices'
p3394
I2421
sS'flops'
p3395
I857
sS'left'
p3396
I5564
sS'just'
p3397
I5565
sS'sporting'
p3398
I2422
sS'fighters'
p3399
I859
sS'human'
p3400
I3968
sS'tattooed'
p3401
I3969
sS'yet'
p3402
I860
sS'sunflower'
p3403
I2423
sS'character'
p3404
I5193
sS'trimming'
p3405
I863
sS'sailors'
p3406
I864
sS'background'
p3407
I5567
sS'forested'
p3408
I3970
sS'depicts'
p3409
I2424
sS'vanity'
p3410
I5568
sS'shoulder'
p3411
I3971
sS'nude'
p3412
I865
sS'performing'
p3413
I3972
sS'kitesurfing'
p3414
I866
sS'oncoming'
p3415
I663
sS'dead'
p3416
I867
sS'platters'
p3417
I868
sS'vaulted'
p3418
I869
sS'altered'
p3419
I1674
sS'dense'
p3420
I5571
sS'pail'
p3421
I2509
sS'carts'
p3422
I870
sS'skateboarded'
p3423
I871
sS'microwave'
p3424
I872
sS'skateboarder'
p3425
I873
sS'bold'
p3426
I5572
sS'dunkin'
p3427
I2045
sS'spewing'
p3428
I157
sS'popular'
p3429
I664
sS'firemen'
p3430
I2428
sS'keeper'
p3431
I2430
sS'super'
p3432
I5573
sS'ribs'
p3433
I3974
sS'magazine'
p3434
I875
sS'afternoon'
p3435
I876
sS'selfie'
p3436
I878
sS'wintery'
p3437
I879
sS'rearview'
p3438
I2432
sS'down'
p3439
I880
sS'lies'
p3440
I5575
sS'carving'
p3441
I3975
sS'cones'
p3442
I665
sS'weathered'
p3443
I5576
sS'flying'
p3444
I881
sS'fork'
p3445
I2434
sS'form'
p3446
I2435
sS'batman'
p3447
I882
sS'fireworks'
p3448
I2436
sS'landing'
p3449
I883
sS'ford'
p3450
I2437
sS'penned'
p3451
I2438
sS'diaper'
p3452
I3976
sS'lilies'
p3453
I3977
sS'pavilion'
p3454
I2439
sS'attached'
p3455
I2106
sS'tangerines'
p3456
I884
sS'stages'
p3457
I2108
sS'sticks'
p3458
I2441
sS'classic'
p3459
I2442
sS'toss'
p3460
I5581
sS'covers'
p3461
I5582
sS'sticky'
p3462
I2443
sS'fashioned'
p3463
I2444
sS'muffins'
p3464
I885
sS'ship'
p3465
I2445
sS'sodas'
p3466
I3978
sS'marking'
p3467
I886
sS'leafless'
p3468
I887
sS'tossing'
p3469
I2122
sS'handed'
p3470
I5584
sS'digital'
p3471
I2447
sS'warehouse'
p3472
I3979
sS'ribbons'
p3473
I2448
sS'sling'
p3474
I5585
sS'handicap'
p3475
I888
sS'diet'
p3476
I2449
sS'grassland'
p3477
I2511
sS'fell'
p3478
I2450
sS'pizzas'
p3479
I5586
sS'uneaten'
p3480
I2451
sS'outskirts'
p3481
I3980
sS'potato'
p3482
I3981
sS'rundown'
p3483
I1054
sS'daily'
p3484
I5587
sS'jacket'
p3485
I889
sS'gorilla'
p3486
I3982
sS'teeth'
p3487
I3983
sS'restored'
p3488
I890
sS'themed'
p3489
I5588
sS'skis'
p3490
I2452
sS'skii'
p3491
I2453
sS'skin'
p3492
I2454
sS'mill'
p3493
I5589
sS'bomber'
p3494
I2156
sS'milk'
p3495
I5590
sS'anticipation'
p3496
I891
sS'yummy'
p3497
I2455
sS'pouch'
p3498
I5946
sS'father'
p3499
I892
sS'disgusting'
p3500
I2162
sS'marks'
p3501
I2456
sS'shoot'
p3502
I2777
sS'smartphone'
p3503
I3985
sS'string'
p3504
I2458
sS'tacos'
p3505
I3986
sS'join'
p3506
I4527
sS'dim'
p3507
I5593
sS'limes'
p3508
I5594
sS'did'
p3509
I5595
sS'dig'
p3510
I2181
sS'bikers'
p3511
I2905
sS'item'
p3512
I3987
sS'dip'
p3513
I2189
sS'round'
p3514
I893
sS'drawings'
p3515
I5596
sS'pants'
p3516
I6296
sS'olympic'
p3517
I2460
sS'seasoning'
p3518
I5597
sS'eating'
p3519
I5375
sS'skiiers'
p3520
I3988
sS'adds'
p3521
I3989
sS'vandalized'
p3522
I5598
sS'international'
p3523
I894
sS'gazebo'
p3524
I5353
sS'jumps'
p3525
I5599
sS'filled'
p3526
I895
sS'transportation'
p3527
I2461
sS'makeup'
p3528
I3991
sS'french'
p3529
I5600
sS'tusked'
p3530
I3992
sS'frosting'
p3531
I896
sS'crackers'
p3532
I5154
sS'wait'
p3533
I5601
sS'box'
p3534
I897
sS'boy'
p3535
I898
sS'cuckoo'
p3536
I3993
sS'canadian'
p3537
I5602
sS'shift'
p3538
I3994
sS'bot'
p3539
I899
sS'bow'
p3540
I900
sS'bruised'
p3541
I3996
sS'teenage'
p3542
I901
sS'kayak'
p3543
I3997
sS'lamppost'
p3544
I5603
sS'hotels'
p3545
I3998
sS'thre'
p3546
I2462
sS'visit'
p3547
I902
sS'france'
p3548
I5604
sS'creamy'
p3549
I5605
sS'thru'
p3550
I2463
sS'sharing'
p3551
I5606
sS'obelisk'
p3552
I5607
sS'downtown'
p3553
I5608
sS'olive'
p3554
I2464
sS'blinds'
p3555
I4862
sS'bushels'
p3556
I903
sS'fly'
p3557
I5609
sS'walled'
p3558
I2465
sS'tokyo'
p3559
I2254
sS'wallet'
p3560
I2466
sS'sour'
p3561
I5611
sS'drags'
p3562
I904
sS'growing'
p3563
I2467
sS'making'
p3564
I905
sS'arrive'
p3565
I2262
sS'bites'
p3566
I5612
sS'claim'
p3567
I5613
sS'crazy'
p3568
I2468
sS'confused'
p3569
I4000
sS'sample'
p3570
I906
sS'drawer'
p3571
I5614
sS'battered'
p3572
I4001
sS'spanning'
p3573
I4002
sS'pink'
p3574
I2276
sS'ping'
p3575
I2470
sS'pine'
p3576
I2280
sS'skater'
p3577
I2471
sS'skates'
p3578
I2472
sS'pins'
p3579
I2283
sS'pathway'
p3580
I2474
sS'loaves'
p3581
I4003
sS'map'
p3582
I4004
sS'staying'
p3583
I5615
sS'mat'
p3584
I4005
sS'may'
p3585
I4006
sS'mac'
p3586
I4007
sS'designed'
p3587
I2294
sS'tablecloth'
p3588
I907
sS'guys'
p3589
I2475
sS'grow'
p3590
I2476
sS'man'
p3591
I4009
sS'close-up'
p3592
I5431
sS'neck'
p3593
I4010
sS'maybe'
p3594
I2477
sS'tale'
p3595
I4011
sS'switch'
p3596
I5616
sS'jail'
p3597
I2479
sS'african'
p3598
I5617
sS'basket'
p3599
I909
sS'tall'
p3600
I4012
sS'gesture'
p3601
I2481
sS'cute'
p3602
I2482
sS'shoes'
p3603
I910
sS'pointed'
p3604
I2483
sS'cuts'
p3605
I2484
sS'marshmallows'
p3606
I2485
sS'police'
p3607
I911
sS'monitor'
p3608
I912
sS'smoothie'
p3609
I2486
sS'interesting'
p3610
I913
sS'mail'
p3611
I5618
sS'main'
p3612
I5619
sS'texas'
p3613
I2487
sS'tucked'
p3614
I914
sS'views'
p3615
I5620
sS'lunch'
p3616
I915
sS'touching'
p3617
I2488
sS'markings'
p3618
I916
sS'mismatched'
p3619
I2489
sS'safari'
p3620
I4016
sS'beach'
p3621
I3527
sS'artist'
p3622
I4017
sS'arrows'
p3623
I4018
sS'rock'
p3624
I4019
sS'showcasing'
p3625
I917
sS'elephants'
p3626
I918
sS'signage'
p3627
I4020
sS'girl'
p3628
I5621
sS'morning'
p3629
I5622
sS'elizabeth'
p3630
I1172
sS'canada'
p3631
I4021
sS'living'
p3632
I5623
sS'3rd'
p3633
I4022
sS'pizzeria'
p3634
I4023
sS'monster'
p3635
I2492
sS'sideways'
p3636
I4024
sS'walnuts'
p3637
I2493
sS'california'
p3638
I5624
sS'ajar'
p3639
I920
sS'headband'
p3640
I1516
sS'underwear'
p3641
I2494
sS'language'
p3642
I2495
sS'waiter'
p3643
I922
sS'headphones'
p3644
I4025
sS'thing'
p3645
I4026
sS'mesh'
p3646
I2785
sS'pepperoni'
p3647
I5625
sS'think'
p3648
I4027
sS'first'
p3649
I924
sS'exotic'
p3650
I2496
sS'cheese'
p3651
I4028
sS'lone'
p3652
I2497
sS'mid-air'
p3653
I5626
sS'crib'
p3654
I4029
sS'long'
p3655
I2498
sS'suspended'
p3656
I4030
sS'carry'
p3657
I2499
sS'cheesy'
p3658
I4031
sS'little'
p3659
I4032
sS'lap'
p3660
I5162
sS'anyone'
p3661
I4034
sS'plains'
p3662
I2500
sS'speaking'
p3663
I925
sS'eyes'
p3664
I4035
sS'eyed'
p3665
I4036
sS'butt'
p3666
I4037
sS'seat'
p3667
I5627
sS'10'
p3668
I4038
sS'12'
p3669
I4039
sS'sailing'
p3670
I5934
sS'18'
p3671
I4040
sS'victorian'
p3672
I2400
sS'protected'
p3673
I5628
sS'knives'
p3674
I2501
sS'were'
p3675
I2502
sS'gigantic'
p3676
I2503
sS'strolls'
p3677
I926
sS'tractor'
p3678
I2504
sS'gathering'
p3679
I3748
sS'lick'
p3680
I927
sS'dollop'
p3681
I2506
sS'dash'
p3682
I5629
sS'winding'
p3683
I5630
sS'pastry'
p3684
I928
sS'mitts'
p3685
I2507
sS'speakers'
p3686
I4041
sS'hooded'
p3687
I4042
sS'potential'
p3688
I4043
sS'interior'
p3689
I5566
sS'performance'
p3690
I930
sS'glassware'
p3691
I2425
sS'switching'
p3692
I4044
sS'channel'
p3693
I5632
sS'jungle'
p3694
I4317
sS'wilted'
p3695
I5633
sS'skinned'
p3696
I2508
sS'straightening'
p3697
I4045
sS'theatre'
p3698
I2426
sS'normal'
p3699
I5634
sS'track'
p3700
I5635
sS'cheesecake'
p3701
I4046
sS'paid'
p3702
I2429
sS'sheets'
p3703
I932
sS'pair'
p3704
I2433
sS'fills'
p3705
I2510
sS'napkin'
p3706
I2440
sS'stockings'
p3707
I4047
sS'shop'
p3708
I4048
sS'shot'
p3709
I4049
sS'show'
p3710
I3370
sS'filed'
p3711
I2512
sS'contemporary'
p3712
I2513
sS'corned'
p3713
I4050
sS'bedside'
p3714
I934
sS'shoe'
p3715
I4051
sS'corner'
p3716
I4052
sS'curled'
p3717
I2514
sS'stormy'
p3718
I935
sS'cheeseburger'
p3719
I5638
sS'enough'
p3720
I940
sS'black'
p3721
I2516
sS'raising'
p3722
I1828
sS'plums'
p3723
I4053
sS'get'
p3724
I936
sS'designated'
p3725
I5639
sS'spraying'
p3726
I2517
sS'nearly'
p3727
I4054
sS'enjoys'
p3728
I166
sS'frolicking'
p3729
I4055
sS'keyboards'
p3730
I5640
sS'median'
p3731
I5641
sS'yield'
p3732
I2490
sS'across'
p3733
I941
sS'finishing'
p3734
I5642
sS'flamingos'
p3735
I937
sS'well-dressed'
p3736
I4056
sS'milling'
p3737
I5643
sS'blurred'
p3738
I2518
sS'seal'
p3739
I938
sS'wonder'
p3740
I939
sS'camping'
p3741
I4057
sS'ornament'
p3742
I4058
sS'label'
p3743
I5637
sS'behind'
p3744
I2515
sS'chews'
p3745
I2520
sS'geometric'
p3746
I5644
sS'reading'
p3747
I2521
sS'checks'
p3748
I2522
sS'oversized'
p3749
I2523
sS'tux'
p3750
I2524
sS'parent'
p3751
I5645
sS'tub'
p3752
I2525
sS'tug'
p3753
I2526
sS'rugby'
p3754
I2527
sS'tuck'
p3755
I5655
sS'restroom'
p3756
I942
sS'tour'
p3757
I943
sS'patrons'
p3758
I5646
sS'dated'
p3759
I2528
sS'spare'
p3760
I4875
sS'holders'
p3761
I2529
sS'among'
p3762
I944
sS'stretches'
p3763
I5647
sS'cabinetry'
p3764
I945
sS'maintained'
p3765
I5648
sS'stretched'
p3766
I5649
sS'mare'
p3767
I5650
sS'arts'
p3768
I2530
sS'mark'
p3769
I5652
sS'attaching'
p3770
I946
sS'workshop'
p3771
I4059
sS'shakers'
p3772
I5690
sS'shopping'
p3773
I5653
sS'graveyard'
p3774
I2531
sS'offered'
p3775
I2532
sS'squash'
p3776
I947
sS'laptops'
p3777
I948
sS'dramatic'
p3778
I949
sS'wake'
p3779
I950
sS'bmw'
p3780
I2533
sS'captivity'
p3781
I2534
sS'sound'
p3782
I951
sS'stacked'
p3783
I5654
sS"n't"
p3784
I2535
sS'coca'
p3785
I952
sS'residence'
p3786
I4876
sS'investigating'
p3787
I953
sS'cock'
p3788
I954
sS'bathrooms'
p3789
I5656
sS'rubbing'
p3790
I2536
sS'them'
p3791
I1977
sS'sleeping'
p3792
I955
sS'middle'
p3793
I2537
sS'pressing'
p3794
I4060
sS'ferns'
p3795
I2538
sS'bags'
p3796
I5658
sS'different'
p3797
I5659
sS'doctor'
p3798
I3237
sS'pay'
p3799
I5660
sS'oven'
p3800
I5958
sS'lava'
p3801
I956
sS'speech'
p3802
I4061
sS'cotton'
p3803
I2247
sS'pan'
p3804
I2607
sS'nunchuck'
p3805
I2609
sS'oil'
p3806
I4062
sS'commode'
p3807
I4063
sS'seagulls'
p3808
I5663
sS'companion'
p3809
I958
sS'running'
p3810
I5664
sS'stairwell'
p3811
I5665
sS'climbing'
p3812
I4064
sS'totally'
p3813
I2540
sS'drain'
p3814
I2541
sS'spoonful'
p3815
I5666
sS'bicyclists'
p3816
I2542
sS'bottle'
p3817
I5667
sS'bumping'
p3818
I4065
sS'gates'
p3819
I5668
sS'knifes'
p3820
I5704
sS'outdoor'
p3821
I959
sS'money'
p3822
I4066
sS'griddle'
p3823
I960
sS'gated'
p3824
I5669
sS'flavor'
p3825
I961
sS'grouped'
p3826
I6238
sS'mcdonald'
p3827
I5670
sS'beagle'
p3828
I5671
sS'pile'
p3829
I4067
sS'4'
I2643
sS'grating'
p3830
I5672
sS'elaborately'
p3831
I2543
sS'docks'
p3832
I2544
sS'mop'
p3833
I5674
sS'mom'
p3834
I5675
sS'long-haired'
p3835
I4068
sS'railroad'
p3836
I5676
sS'aiming'
p3837
I5677
sS'blankets'
p3838
I2545
sS'rocky'
p3839
I3538
sS'vertically'
p3840
I962
sS'vending'
p3841
I963
sS'serves'
p3842
I4070
sS'server'
p3843
I4071
sS'facing'
p3844
I4072
sS'audience'
p3845
I2547
sS'either'
p3846
I4073
sS'served'
p3847
I4074
sS'buidling'
p3848
I965
sS'sneaker'
p3849
I4075
sS'doll'
p3850
I2548
sS'images'
p3851
I966
sS'cabs'
p3852
I4076
sS'matching'
p3853
I4077
sS'gross'
p3854
I2549
sS'colonial'
p3855
I4078
sS'overly'
p3856
I5679
sS'knife'
p3857
I967
sS'ovens'
p3858
I2550
sS'raincoat'
p3859
I968
sS'unusual'
p3860
I2551
sS'broken'
p3861
I2552
sS'drums'
p3862
I2553
sS'roaming'
p3863
I2554
sS'crafting'
p3864
I4079
sS'stations'
p3865
I2555
sS'island'
p3866
I2687
sS'generated'
p3867
I2556
sS'mixer'
p3868
I4080
sS'airline'
p3869
I5682
sS'pockets'
p3870
I970
sS'mounting'
p3871
I4880
sS'mixed'
p3872
I4081
sS'road'
p3873
I5684
sS'quietly'
p3874
I5685
sS'lands'
p3875
I2557
sS'whites'
p3876
I5686
sS'spreading'
p3877
I5687
sS'airlines'
p3878
I4882
sS'harness'
p3879
I971
sS'strip'
p3880
I4082
sS'skillet'
p3881
I972
sS'shells'
p3882
I4083
sS'appears'
p3883
I2046
sS'lions'
p3884
I5688
sS'earphones'
p3885
I679
sS'pretends'
p3886
I4084
sS'flat-screen'
p3887
I2558
sS'buggy'
p3888
I2559
sS'strikes'
p3889
I4085
sS'wiping'
p3890
I2560
sS'bookstore'
p3891
I2561
sS'walkway'
p3892
I5691
sS'spice'
p3893
I974
sS'arranged'
p3894
I975
sS'strawberry'
p3895
I2562
sS'peeking'
p3896
I976
sS'netting'
p3897
I2563
sS'suitcase'
p3898
I2564
sS'affection'
p3899
I5692
sS'hanged'
p3900
I5964
sS'rapids'
p3901
I977
sS'deer'
p3902
I4086
sS'deep'
p3903
I4087
sS'fellow'
p3904
I5693
sS'examine'
p3905
I978
sS'file'
p3906
I4088
sS'hound'
p3907
I5694
sS'cables'
p3908
I5695
sS'film'
p3909
I4090
sS'fill'
p3910
I4091
sS'personnel'
p3911
I4092
sS'drivers'
p3912
I4093
sS'field'
p3913
I2565
sS'rollerblading'
p3914
I5697
sS'outfield'
p3915
I5698
sS'lapel'
p3916
I2742
sS'students'
p3917
I2566
sS'decorates'
p3918
I4094
sS'important'
p3919
I4095
sS'decorated'
p3920
I4096
sS'awkwardly'
p3921
I5699
sS'remote'
p3922
I2567
sS'unload'
p3923
I5700
sS'casts'
p3924
I5701
sS'u'
I979
sS'resembles'
p3925
I4097
sS'husky'
p3926
I4098
sS'starting'
p3927
I2568
sS'diesel'
p3928
I5172
sS'suburban'
p3929
I2569
sS'dollar'
p3930
I4099
sS'talks'
p3931
I2570
sS'fixtures'
p3932
I5940
sS'children'
p3933
I5702
sS'shattered'
p3934
I980
sS'shredding'
p3935
I4100
sS'those'
p3936
I2571
sS'unripened'
p3937
I5703
sS'enjoying'
p3938
I981
sS'turnips'
p3939
I4101
sS'returning'
p3940
I4102
sS'puffy'
p3941
I983
sS'scout'
p3942
I2572
sS'fall'
p3943
I2573
sS'surfboarder'
p3944
I985
sS'washer'
p3945
I2799
sS'washing'
p3946
I987
sS'mothers'
p3947
I2574
sS'neighborhood'
p3948
I2801
sS'portable'
p3949
I4104
sS'grabs'
p3950
I4105
sS'knitted'
p3951
I2576
sS'burger'
p3952
I2809
sS'clutches'
p3953
I1824
sS'perspective'
p3954
I989
sS'further'
p3955
I5705
sS'ribbon'
p3956
I5706
sS'swampy'
p3957
I990
sS'stood'
p3958
I2577
sS'wrecked'
p3959
I991
sS'stool'
p3960
I2578
sS'fixings'
p3961
I4106
sS'public'
p3962
I4107
sS'movement'
p3963
I5708
sS'tattoos'
p3964
I5709
sS'videogame'
p3965
I992
sS'bowtie'
p3966
I4108
sS'mule'
p3967
I993
sS'operating'
p3968
I2580
sS'search'
p3969
I2581
sS'stretching'
p3970
I2840
sS'storefront'
p3971
I5711
sS'sofas'
p3972
I994
sS'airport'
p3973
I2582
sS'lasagna'
p3974
I995
sS'narrow'
p3975
I2583
sS'fenced'
p3976
I6242
sS'buses'
p3977
I5712
sS'transit'
p3978
I2584
sS'africa'
p3979
I6014
sS'armed'
p3980
I2585
sS'dachshund'
p3981
I996
sS'eye'
p3982
I4109
sS'wiped'
p3983
I4111
sS'destination'
p3984
I5714
sS'texting'
p3985
I4112
sS'two'
p3986
I4113
sS'splash'
p3987
I4114
sS'amenities'
p3988
I4115
sS'raft'
p3989
I4116
sS'wipes'
p3990
I6023
sS'pawing'
p3991
I4117
sS'diamond'
p3992
I5715
sS'caboose'
p3993
I997
sS'purse'
p3994
I3307
sS'landed'
p3995
I998
sS'controlling'
p3996
I2586
sS'lemons'
p3997
I4118
sS'varying'
p3998
I2873
sS'goblets'
p3999
I5717
sS'town'
p4000
I2587
sS'hour'
p4001
I999
sS'cluster'
p4002
I5657
sS'dew'
p4003
I2588
sS'guards'
p4004
I1000
sS'den'
p4005
I2589
sS'marble'
p4006
I2885
sS'shark'
p4007
I5718
sS'overhang'
p4008
I4120
sS'hamburger'
p4009
I5719
sS'share'
p4010
I5720
sS'numbers'
p4011
I1001
sS'sharp'
p4012
I5721
sS'!'
I4121
sS'needs'
p4013
I1002
sS'awkward'
p4014
I4122
sS'comfort'
p4015
I1003
sS'stir'
p4016
I1004
sS'blood'
p4017
I2591
sS'coming'
p4018
I1006
sS'bloom'
p4019
I2592
sS'bleak'
p4020
I5722
sS'chute'
p4021
I4123
sS'orchard'
p4022
I5723
sS'crowded'
p4023
I4124
sS'coat'
p4024
I2593
sS'toiletries'
p4025
I1007
sS'paw'
p4026
I2594
sS'eats'
p4027
I5724
sS'bathed'
p4028
I5725
sS'dragon'
p4029
I1008
sS'deserted'
p4030
I4125
sS'coal'
p4031
I2595
sS'playing'
p4032
I4126
sS'infant'
p4033
I5726
sS'rounded'
p4034
I5727
sS'industrial'
p4035
I5970
sS'dough'
p4036
I2596
sS'same'
p4037
I2539
sS'20'
p4038
I4127
sS'handheld'
p4039
I2598
sS'late'
p4040
I2599
sS'dolly'
p4041
I2600
sS'penn'
p4042
I2601
sS'pesto'
p4043
I6108
sS'dolls'
p4044
I2602
sS'someone'
p4045
I2928
sS'males'
p4046
I2603
sS'detour'
p4047
I5729
sS'walls'
p4048
I2604
sS'easily'
p4049
I5730
sS'huddle'
p4050
I6130
sS'chairlift'
p4051
I2605
sS'pregnant'
p4052
I5731
sS'micro'
p4053
I1010
sS'goofy'
p4054
I2606
sS'biscuits'
p4055
I5732
sS'nuzzle'
p4056
I4888
sS'everyone'
p4057
I2608
sS'delicious'
p4058
I3550
sS'exhaust'
p4059
I5662
sS'house'
p4060
I5733
sS'energy'
p4061
I4128
sS'hard'
p4062
I4129
sS'monks'
p4063
I5734
sS'banquet'
p4064
I6202
sS'engaging'
p4065
I1011
sS'extended'
p4066
I957
sS'fist'
p4067
I4130
sS'scissors'
p4068
I4131
sS'backpacks'
p4069
I5735
sS'comic'
p4070
I5173
sS'flower'
p4071
I2954
sS'pigeon'
p4072
I2610
sS'projected'
p4073
I2611
sS'acting'
p4074
I5736
sS'granola'
p4075
I4133
sS'print'
p4076
I6154
sS'foreground'
p4077
I4134
sS'unidentifiable'
p4078
I4135
sS'crouched'
p4079
I4136
sS'bulls'
p4080
I5737
sS'pleasant'
p4081
I2612
sS'signal'
p4082
I2232
sS'crouches'
p4083
I4137
sS'members'
p4084
I4138
sS'backed'
p4085
I1012
sS'beginning'
p4086
I1013
sS'faucet'
p4087
I1014
sS'computers'
p4088
I4139
sS'wired'
p4089
I180
sS'pilots'
p4090
I5738
sS'copper'
p4091
I4140
sS'done'
p4092
I4141
sS'tot'
p4093
I4334
sS'cups'
p4094
I5739
sS'razor'
p4095
I1016
sS'twenty'
p4096
I2614
sS'jetty'
p4097
I1017
sS'least'
p4098
I4142
sS'paint'
p4099
I2615
sS'leash'
p4100
I6184
sS'mama'
p4101
I2616
sS'compartment'
p4102
I2617
sS'muscles'
p4103
I5740
sS'para'
p4104
I4143
sS'drapes'
p4105
I4144
sS'needle'
p4106
I2618
sS'park'
p4107
I4145
sS'trolly'
p4108
I1018
sS'part'
p4109
I4147
sS'doctors'
p4110
I4148
sS'stirs'
p4111
I2620
sS'b'
I2621
sS'recording'
p4112
I4149
sS'interactive'
p4113
I2623
sS'curtains'
p4114
I4338
sS'ages'
p4115
I5742
sS'aged'
p4116
I5743
sS'orders'
p4117
I4150
sS'backseat'
p4118
I5744
sS'mountain'
p4119
I5745
sS'cardigan'
p4120
I5746
sS'built'
p4121
I5747
sS'dancing'
p4122
I5748
sS'couch'
p4123
I1020
sS'lifts'
p4124
I1021
sS'build'
p4125
I5749
sS'zucchini'
p4126
I4151
sS'folders'
p4127
I2625
sS'serve'
p4128
I2805
sS'eggs'
p4129
I1022
sS'salmon'
p4130
I4153
sS'serviced'
p4131
I1023
sS'most'
p4132
I4154
sS'moss'
p4133
I4155
sS'extremely'
p4134
I4156
sS'refrigerator'
p4135
I5750
sS'feasting'
p4136
I1024
sS'cramped'
p4137
I2626
sS'reflections'
p4138
I1025
sS'thomas'
p4139
I2627
sS'sparrow'
p4140
I4157
sS'scattered'
p4141
I2628
sS'hugging'
p4142
I5751
sS'perches'
p4143
I5752
sS'hillside'
p4144
I2629
sS'crocheted'
p4145
I4158
sS'businesses'
p4146
I1026
sS'carefully'
p4147
I2630
sS'fine'
p4148
I5754
sS'find'
p4149
I5755
sS'giant'
p4150
I5756
sS'unhappy'
p4151
I4159
sS'8'
I4160
sS'boulder'
p4152
I5757
sS'express'
p4153
I1027
sS'toddlers'
p4154
I1028
sS'batter'
p4155
I2631
sS'breast'
p4156
I1029
sS'silk'
p4157
I4161
sS'sill'
p4158
I4162
sS'merchandise'
p4159
I4163
sS'silo'
p4160
I4164
sS'motorcycles'
p4161
I1030
sS'remove'
p4162
I4165
sS'common'
p4163
I4166
sS'hike'
p4164
I5177
sS'doubles'
p4165
I1031
sS'restaurants'
p4166
I1032
sS'scruffy'
p4167
I4167
sS'opposing'
p4168
I5033
sS'vine'
p4169
I5758
sS'lion'
p4170
I4168
sS'individual'
p4171
I2632
sS'snow-capped'
p4172
I1033
sS'quiche'
p4173
I1034
sS'repairs'
p4174
I4169
sS'halved'
p4175
I2633
sS'visiting'
p4176
I5760
sS'burner'
p4177
I4170
sS'halves'
p4178
I2634
sS'fans'
p4179
I4171
sS'propellor'
p4180
I2635
sS'champagne'
p4181
I4173
sS'iron'
p4182
I5178
sS'mailbox'
p4183
I1036
sS'aircraft'
p4184
I5763
sS'pepsi'
p4185
I4174
sS'sheeps'
p4186
I4175
sS'floats'
p4187
I2636
sS'cubes'
p4188
I5764
sS'folding'
p4189
I4176
sS'restaurant'
p4190
I1037
sS'archway'
p4191
I4177
sS'foreign'
p4192
I1038
sS'alot'
p4193
I2637
sS'baltimore'
p4194
I1039
sS'cakes'
p4195
I4178
sS'point'
p4196
I1040
sS'simple'
p4197
I4179
sS'newborn'
p4198
I2639
sS'simply'
p4199
I4180
sS'throughout'
p4200
I2640
sS'expensive'
p4201
I1041
sS'patiently'
p4202
I2641
sS'weaving'
p4203
I6325
sS'instrument'
p4204
I4893
sS'create'
p4205
I2642
sS'screened'
p4206
I1042
sS'dropping'
p4207
I4181
sS'peppers'
p4208
I1043
sS'meeting'
p4209
I5766
sS'attire'
p4210
I6247
sS'vans'
p4211
I4182
sS'gay'
p4212
I4183
sS'assorted'
p4213
I6330
sS'gas'
p4214
I4184
sS'gap'
p4215
I4185
sS'vane'
p4216
I4186
sS'prices'
p4217
I3134
sS'fur'
p4218
I2644
sS'grains'
p4219
I1044
sS'raw'
p4220
I5976
sS'solid'
p4221
I5768
sS'bill'
p4222
I3139
sS'tiered'
p4223
I1045
sS'fun'
p4224
I2645
sS'infront'
p4225
I5179
sS'adjusts'
p4226
I6249
sS'century'
p4227
I1046
sS'cents'
p4228
I2646
sS'decoration'
p4229
I2647
sS'itself'
p4230
I5769
sS'facade'
p4231
I4188
sS'hydrants'
p4232
I5770
sS'italy'
p4233
I5771
sS'butcher'
p4234
I4189
sS'corridor'
p4235
I1048
sS'windmill'
p4236
I31
sS'strips'
p4237
I1049
sS'tupperware'
p4238
I1050
sS'keys'
p4239
I2112
sS'leopard'
p4240
I5773
sS'desks'
p4241
I2648
sS'moment'
p4242
I2649
sS'stripe'
p4243
I1051
sS'wheelchairs'
p4244
I5774
sS'sandals'
p4245
I2650
sS'celebratory'
p4246
I3161
sS'horse-drawn'
p4247
I1052
sS'gestures'
p4248
I186
sS'beanie'
p4249
I5775
sS'spices'
p4250
I5776
sS'flags'
p4251
I5777
sS'swiss'
p4252
I4190
sS'entry'
p4253
I3174
sS'paneling'
p4254
I4191
sS'eyeglasses'
p4255
I5779
sS'isolated'
p4256
I5978
sS'shape'
p4257
I1053
sS'letting'
p4258
I4192
sS'cut'
p4259
I1055
sS'cup'
p4260
I1056
sS'source'
p4261
I1057
sS'cub'
p4262
I1058
sS'snap'
p4263
I5781
sS'bridal'
p4264
I2651
sS'excited'
p4265
I2652
sS'unloading'
p4266
I4193
sS'bin'
p4267
I5782
sS'big'
p4268
I5783
sS'bib'
p4269
I5784
sS'bit'
p4270
I5785
sS'semi'
p4271
I4195
sS'follows'
p4272
I5786
sS'glove'
p4273
I2653
sS'bamboo'
p4274
I4196
sS'google'
p4275
I5787
sS'gardening'
p4276
I4197
sS'often'
p4277
I5788
sS'magnificent'
p4278
I5789
sS'back'
p4279
I2654
sS'ornaments'
p4280
I98
sS'mirror'
p4281
I4198
sS'candle'
p4282
I1059
sS'googly'
p4283
I5790
sS'scale'
p4284
I5791
sS'jewelry'
p4285
I4199
sS'pet'
p4286
I2655
sS'per'
p4287
I2656
sS'pen'
p4288
I2657
sS'connecting'
p4289
I4200
sS'pea'
p4290
I2658
sS'nose'
p4291
I2659
sS'cameraman'
p4292
I4201
sS'patient'
p4293
I4202
sS'taxing'
p4294
I4203
sS'fed'
p4295
I3053
sS'lounges'
p4296
I5793
sS'costumed'
p4297
I5794
sS'moored'
p4298
I1061
sS'goods'
p4299
I4204
sS'usa'
p4300
I3055
sS'piles'
p4301
I5795
sS'iced'
p4302
I6254
sS'oatmeal'
p4303
I4205
sS'piled'
p4304
I5797
sS'beans'
p4305
I2660
sS'auditorium'
p4306
I4896
sS'daisies'
p4307
I5798
sS'framed'
p4308
I4206
sS'frog'
p4309
I1434
sS'frames'
p4310
I142
sS'lesson'
p4311
I4207
sS'downhill'
p4312
I5799
sS'jockey'
p4313
I2661
sS'homemade'
p4314
I3285
sS'forward'
p4315
I2662
sS'bored'
p4316
I2663
sS'opponent'
p4317
I4208
sS'adjusting'
p4318
I2664
sS'stunning'
p4319
I1480
sS'boys'
p4320
I4210
sS'tree-lined'
p4321
I5800
sS'calico'
p4322
I5801
sS'lifeguard'
p4323
I2665
sS'restaraunt'
p4324
I5802
sS'clips'
p4325
I5803
sS"'re"
p4326
I4211
sS'planes'
p4327
I1062
sS'jumbo'
p4328
I4212
sS'geese'
p4329
I4213
sS'stripped'
p4330
I1063
sS'mopeds'
p4331
I1064
sS'single'
p4332
I4214
sS'curb'
p4333
I1065
sS'necks'
p4334
I175
sS'appetizing'
p4335
I1066
sS'curl'
p4336
I1067
sS'tiling'
p4337
I4215
sS'freeway'
p4338
I5984
sS'pecks'
p4339
I182
sS'plugged'
p4340
I2667
sS'mayonnaise'
p4341
I1069
sS'brushing'
p4342
I4216
sS'explaining'
p4343
I2668
sS'cellar'
p4344
I1070
sS'firetruck'
p4345
I3320
sS'prepared'
p4346
I4217
sS'lens'
p4347
I5807
sS'prepares'
p4348
I4218
sS'depicting'
p4349
I4219
sS'desert'
p4350
I5808
sS'mantel'
p4351
I5809
sS'overlooking'
p4352
I1071
sS'cooker'
p4353
I1072
sS'vehicles'
p4354
I3328
sS'admiring'
p4355
I2669
sS'cooked'
p4356
I1073
sS'presenting'
p4357
I1074
sS'stroller'
p4358
I2670
sS'groceries'
p4359
I1075
sS'snowmobile'
p4360
I1076
sS'intricate'
p4361
I5810
sS'peanut'
p4362
I2671
sS'helps'
p4363
I4220
sS'frisbees'
p4364
I5811
sS'gravel'
p4365
I2672
sS'skiies'
p4366
I5812
sS'skiier'
p4367
I861
sS'random'
p4368
I4221
sS'dessert'
p4369
I1077
sS'huddled'
p4370
I4222
sS'putting'
p4371
I2673
sS'toasted'
p4372
I4762
sS'legos'
p4373
I1078
sS'entire'
p4374
I1079
sS'recreation'
p4375
I4223
sS'salad'
p4376
I1080
sS'knight'
p4377
I3359
sS'windsurfer'
p4378
I683
sS'choppy'
p4379
I2674
sS'lapse'
p4380
I697
sS'measuring'
p4381
I5680
sS'fire-hydrant'
p4382
I4224
sS'crow'
p4383
I2675
sS'mural'
p4384
I3372
sS'chicago'
p4385
I5813
sS'giving'
p4386
I2677
sS'pipes'
p4387
I4225
sS'airways'
p4388
I5681
sS'paddle'
p4389
I4226
sS'access'
p4390
I270
sS'lumber'
p4391
I3063
sS'exercise'
p4392
I4227
sS'3d'
p4393
I4228
sS'body'
p4394
I5814
sS'exchange'
p4395
I4229
sS'packing'
p4396
I1081
sS'objects'
p4397
I4230
sS'sink'
p4398
I5815
sS'others'
p4399
I5816
sS'sing'
p4400
I2878
sS'jockeys'
p4401
I2678
sS'extreme'
p4402
I5817
sS'stalks'
p4403
I2679
sS'dispensers'
p4404
I5818
sS'alaska'
p4405
I5819
sS'climb'
p4406
I1082
sS'named'
p4407
I2680
sS'baskets'
p4408
I3401
sS'names'
p4409
I2682
sS'oval'
p4410
I2683
sS'inclosure'
p4411
I4231
sS'lime'
p4412
I5821
sS'taxiing'
p4413
I5822
sS'themselves'
p4414
I2684
sS'upcoming'
p4415
I4232
sS'kiosk'
p4416
I1084
sS'trail'
p4417
I4233
sS'train'
p4418
I5070
sS'tattered'
p4419
I2685
sS'arranging'
p4420
I2686
sS'tunnel'
p4421
I5824
sS'tag'
p4422
I6262
sS'closing'
p4423
I1085
sS'fetch'
p4424
I1086
sS'snacks'
p4425
I4234
sS'sanding'
p4426
I5826
sS'hangar'
p4427
I2688
sS'lamb'
p4428
I4236
sS'curving'
p4429
I340
sS'boxing'
p4430
I4237
sS'formations'
p4431
I1088
sS'lamp'
p4432
I4238
sS'forest'
p4433
I345
sS'feta'
p4434
I2689
sS'onlookers'
p4435
I3446
sS'profile'
p4436
I1089
sS'egret'
p4437
I3822
sS'buildings'
p4438
I2690
sS'de'
p4439
I1990
sS'waters'
p4440
I5833
sS'roam'
p4441
I5683
sS'collection'
p4442
I5834
sS'sip'
p4443
I4613
sS'terrier'
p4444
I4239
sS'cuddling'
p4445
I5835
sS'chasing'
p4446
I1091
sS'lines'
p4447
I5836
sS'liner'
p4448
I5837
sS'linen'
p4449
I5838
sS'minivan'
p4450
I2691
sS'lined'
p4451
I5839
sS'unmade'
p4452
I1092
sS'mustache'
p4453
I1093
sS'meter'
p4454
I2692
sS'symbols'
p4455
I1094
sS'hugged'
p4456
I2693
sS'horns'
p4457
I1095
sS'bunch'
p4458
I2694
sS'bridges'
p4459
I5840
sS'la'
p4460
I2695
sS'winning'
p4461
I984
sS'squatting'
p4462
I5842
sS'marsh'
p4463
I2696
sS'dad'
p4464
I5843
sS'junction'
p4465
I5844
sS'cutting'
p4466
I5845
sS'day'
p4467
I5846
sS'straddling'
p4468
I1097
sS'stunts'
p4469
I5847
sS'blindfolded'
p4470
I1098
sS'cider'
p4471
I1099
sS'lingerie'
p4472
I2697
sS'gazing'
p4473
I2698
sS'moped'
p4474
I4908
sS'pantry'
p4475
I1101
sS'sweatshirt'
p4476
I5848
sS'popping'
p4477
I1102
sS'mats'
p4478
I4242
sS'hedges'
p4479
I3507
sS'oriental'
p4480
I5849
sS'flushing'
p4481
I1103
sS'lecture'
p4482
I5850
sS'electronics'
p4483
I2699
sS'windsurfing'
p4484
I5851
sS'red'
p4485
I125
sS'duffle'
p4486
I4243
sS'approaches'
p4487
I1104
sS'masks'
p4488
I5852
sS'semi-truck'
p4489
I4244
sS'retriever'
p4490
I3522
sS'steak'
p4491
I5186
sS'yard'
p4492
I1106
sS'ruins'
p4493
I4245
sS'skateboard'
p4494
I1107
sS'yarn'
p4495
I425
sS'vehicular'
p4496
I1108
sS'barriers'
p4497
I5853
sS'retail'
p4498
I2700
sS'south'
p4499
I3530
sS'girafee'
p4500
I2701
sS'ethnic'
p4501
I5855
sS'reaches'
p4502
I1109
sS'hey'
p4503
I3325
sS'hurdle'
p4504
I2702
sS'braces'
p4505
I1111
sS'ancient'
p4506
I513
sS'monkey'
p4507
I2703
sS'laps'
p4508
I5856
sS'pots'
p4509
I2704
sS'messing'
p4510
I2705
sS'liquor'
p4511
I4246
sS'cabin'
p4512
I4247
sS'gear'
p4513
I5858
sS'bulldog'
p4514
I1112
sS'dreary'
p4515
I4248
sS'foamy'
p4516
I1113
sS'ipad'
p4517
I5859
sS'furnishings'
p4518
I3565
sS'flashes'
p4519
I4249
sS'nuzzling'
p4520
I5860
sS'tidy'
p4521
I2706
sS'comfortable'
p4522
I2707
sS'tide'
p4523
I2708
sS'comfortably'
p4524
I2709
sS'have'
p4525
I1114
sS'curved'
p4526
I5862
sS'apparently'
p4527
I4251
sS'sidecar'
p4528
I5864
sS'mid'
p4529
I4252
sS'parks'
p4530
I4253
sS'mix'
p4531
I5828
sS'chaise'
p4532
I5865
sS'parka'
p4533
I4254
sS'mit'
p4534
I4255
sS'mangoes'
p4535
I1995
sS'pausing'
p4536
I5866
sS'eight'
p4537
I2711
sS'tripod'
p4538
I5689
sS'handbag'
p4539
I2712
sS'beets'
p4540
I1115
sS'quilted'
p4541
I5867
sS'gather'
p4542
I5868
sS'workspace'
p4543
I2714
sS'occasion'
p4544
I1116
sS'skinny'
p4545
I4256
sS'planks'
p4546
I2715
sS'selection'
p4547
I5869
sS'kite'
p4548
I5870
sS'text'
p4549
I5871
sS'kits'
p4550
I5872
sS'thicket'
p4551
I1117
sS'staff'
p4552
I4257
sS'coloring'
p4553
I2716
sS'controls'
p4554
I4258
sS'emitting'
p4555
I1118
sS'photographs'
p4556
I5873
sS'beat'
p4557
I5874
sS'photography'
p4558
I5875
sS'stripes'
p4559
I5876
sS'bear'
p4560
I5877
sS'beam'
p4561
I5878
sS'bean'
p4562
I5879
sS'beak'
p4563
I5880
sS'bead'
p4564
I5881
sS'striped'
p4565
I5882
sS'areas'
p4566
I2717
sS'organ'
p4567
I2718
sS'fixes'
p4568
I1119
sS'teams'
p4569
I1120
sS'mercedes'
p4570
I1121
sS'cycles'
p4571
I4260
sS'looks'
p4572
I5884
sS'turkeys'
p4573
I1123
sS'national'
p4574
I2719
sS'daffodils'
p4575
I1124
sS'racket'
p4576
I1125
sS'tuxedos'
p4577
I1126
sS'awaits'
p4578
I555
sS'attempting'
p4579
I559
sS'pattern'
p4580
I4261
sS'purses'
p4581
I2721
sS'hammock'
p4582
I1127
sS'progress'
p4583
I5886
sS'cauliflower'
p4584
I1128
sS'deliver'
p4585
I4262
sS'freely'
p4586
I2722
sS'taking'
p4587
I4263
sS'boulders'
p4588
I5887
sS'busted'
p4589
I2723
sS'passing'
p4590
I2724
sS'wear'
p4591
I4356
sS'detailed'
p4592
I4265
sS'statues'
p4593
I1130
sS'gone'
p4594
I1716
sS'basins'
p4595
I4267
sS'denim'
p4596
I1131
sS'laugh'
p4597
I2725
sS'pouring'
p4598
I2726
sS'muddy'
p4599
I2727
sS'seasoned'
p4600
I1132
sS'curtain'
p4601
I4268
sS'angled'
p4602
I5890
sS'finishes'
p4603
I4269
sS'stationed'
p4604
I4270
sS'airplanes'
p4605
I2728
sS'preforming'
p4606
I4271
sS'ridden'
p4607
I5892
sS'finished'
p4608
I4272
sS'sausages'
p4609
I4273
sS'angles'
p4610
I5893
sS'bull'
p4611
I4274
sS'homes'
p4612
I5894
sS'multi'
p4613
I4275
sS'plaid'
p4614
I5895
sS'splits'
p4615
I2729
sS'plain'
p4616
I5896
sS'as'
p4617
I1720
sS'rectangular'
p4618
I1758
sS'hoagie'
p4619
I5897
sS'at'
p4620
I4276
sS'almost'
p4621
I4277
sS'av'
p4622
I1722
sS'respected'
p4623
I2730
sS'arrangements'
p4624
I1134
sS'partner'
p4625
I1135
sS'arabic'
p4626
I2731
sS')'
I1136
sS'citrus'
p4627
I4621
sS'taxidermy'
p4628
I622
sS'shuttle'
p4629
I2732
sS'injured'
p4630
I5898
sS'practice'
p4631
I6272
sS'croissants'
p4632
I2734
sS'numbered'
p4633
I4279
sS'center'
p4634
I2735
sS'thought'
p4635
I5899
sS'kiteboarding'
p4636
I4280
sS'sets'
p4637
I5900
sS'hazard'
p4638
I5901
sS'position'
p4639
I5902
sS'floored'
p4640
I3512
sS'latest'
p4641
I2736
sS'coaster'
p4642
I2737
sS'barking'
p4643
I5903
sS'proximity'
p4644
I5904
sS'stored'
p4645
I1138
sS'seats'
p4646
I2738
sS'protecting'
p4647
I2739
sS'flashlight'
p4648
I1139
sS'onward'
p4649
I1140
sS'lake'
p4650
I3763
sS'bench'
p4651
I2740
sS'add'
p4652
I4281
sS'match'
p4653
I4282
sS'dryer'
p4654
I3779
sS'flamingo'
p4655
I4283
sS'rumpled'
p4656
I5905
sS'like'
p4657
I1142
sS'inviting'
p4658
I5906
sS'vibrant'
p4659
I1143
sS'chick'
p4660
I1144
sS'works'
p4661
I2741
sS'soft'
p4662
I5908
sS'heel'
p4663
I3791
sS'italian'
p4664
I4284
sS'accessible'
p4665
I4285
sS'carnations'
p4666
I671
sS'hair'
p4667
I1145
sS'proper'
p4668
I4286
sS'paddock'
p4669
I2743
sS'shrub'
p4670
I4287
sS'dunes'
p4671
I2744
sS'shelter'
p4672
I2745
sS'bustling'
p4673
I4288
sS'speak'
p4674
I5194
sS'chains'
p4675
I5909
sS'pepper'
p4676
I690
sS'hose'
p4677
I3807
sS'slight'
p4678
I2746
sS'host'
p4679
I5911
sS'panel'
p4680
I2747
sS'gifts'
p4681
I4926
sS'about'
p4682
I4290
sS'actual'
p4683
I4291
sS'boards'
p4684
I696
sS'childrens'
p4685
I5912
sS'zooms'
p4686
I5913
sS'socks'
p4687
I1146
sS'guard'
p4688
I5914
sS'female'
p4689
I1147
sS'underpass'
p4690
I4292
sS'stainless'
p4691
I4293
sS'vegetables'
p4692
I4294
sS'firefighter'
p4693
I2748
sS'chunk'
p4694
I2285
sS'ivory'
p4695
I5915
sS'buy'
p4696
I2749
sS'chatting'
p4697
I4295
sS'bus'
p4698
I2750
sS'coke'
p4699
I1148
sS'but'
p4700
I2751
sS'landscaping'
p4701
I1149
sS'bun'
p4702
I2752
sS'bookshelf'
p4703
I2753
sS'inverted'
p4704
I2286
sS'bug'
p4705
I2754
sS'bud'
p4706
I2755
sS'partially'
p4707
I3846
sS'misty'
p4708
I3847
sS'tater'
p4709
I4264
sS'dangerous'
p4710
I5917
sS'flip'
p4711
I1349
sS'minutes'
p4712
I2756
sS'squat'
p4713
I929
sS'skating'
p4714
I4296
sS'pin'
p4715
I5919
sS'circus'
p4716
I1150
sS'topless'
p4717
I4298
sS'pig'
p4718
I5922
sS'tabletop'
p4719
I5923
sS'shooting'
p4720
I5924
sS'pit'
p4721
I5925
sS'campus'
p4722
I747
sS'messily'
p4723
I4299
sS'dressed'
p4724
I751
sS'oak'
p4725
I4300
sS'virtual'
p4726
I2757
sS'special'
p4727
I4301
sS'ledge'
p4728
I2758
sS'granite'
p4729
I2759
sS'dresses'
p4730
I1152
sS'dresser'
p4731
I1153
sS'bundle'
p4732
I6165
sS'baker'
p4733
I2760
sS'littered'
p4734
I4302
sS'hiker'
p4735
I2761
sS'baked'
p4736
I2762
sS'hats'
p4737
I2763
sS'sleek'
p4738
I5926
sS'doubledecker'
p4739
I5927
sS'sleep'
p4740
I5928
sS'hate'
p4741
I2764
sS'assembled'
p4742
I5929
sS'poorly'
p4743
I4303
sS'trolley'
p4744
I2765
sS'muzzle'
p4745
I4304
sS'feeding'
p4746
I3890
sS'patches'
p4747
I5930
sS'paris'
p4748
I5931
sS'teapot'
p4749
I6002
sS'under'
p4750
I4305
sS'verdant'
p4751
I2766
sS'merchant'
p4752
I5932
sS'grits'
p4753
I6278
sS'rise'
p4754
I5933
sS'every'
p4755
I2767
sS'jack'
p4756
I4306
sS'confetti'
p4757
I2768
sS'fireplace'
p4758
I5935
sS'monkeys'
p4759
I4307
sS'school'
p4760
I1155
sS'motorcyclist'
p4761
I810
sS'venue'
p4762
I5937
sS'guiding'
p4763
I5938
sS'enjoy'
p4764
I2770
sS'bicycle'
p4765
I4308
sS'feathers'
p4766
I1156
sS'direct'
p4767
I1157
sS'frosted'
p4768
I4309
sS'nail'
p4769
I1158
sS'surrounding'
p4770
I5939
sS'street'
p4771
I2771
sS'monorail'
p4772
I1159
sS'shining'
p4773
I2772
sS'blue'
p4774
I1160
sS'liberty'
p4775
I828
sS'blur'
p4776
I1161
sS'supplies'
p4777
I1162
sS'disney'
p4778
I740
sS'ramps'
p4779
I5941
sS'hundreds'
p4780
I2773
sS'studio'
p4781
I3953
sS'path'
p4782
I2774
sS'stares'
p4783
I3956
sS'mozzarella'
p4784
I1163
sS'luggage'
p4785
I848
sS'leaves'
p4786
I1164
sS'jogging'
p4787
I5942
sS'prints'
p4788
I858
sS'straw'
p4789
I4310
sS'erected'
p4790
I1060
sS'visible'
p4791
I2775
sS'meats'
p4792
I1165
sS'swings'
p4793
I4312
sS'scaffolding'
p4794
I5943
sS'would'
p4795
I874
sS'hospital'
p4796
I877
sS'spiky'
p4797
I1166
sS'billowing'
p4798
I4313
sS'brushy'
p4799
I5944
sS'phone'
p4800
I5945
sS'excellent'
p4801
I1167
sS'outdated'
p4802
I2776
sS'must'
p4803
I5947
sS'abundance'
p4804
I1168
sS'ma'
p4805
I2778
sS'mm'
p4806
I2779
sS'my'
p4807
I2780
sS'decorative'
p4808
I5948
sS'dolphin'
p4809
I1169
sS'gadgets'
p4810
I1170
sS'jetliner'
p4811
I4315
sS'times'
p4812
I718
sS'ceremony'
p4813
I1171
sS'end'
p4814
I2781
sS'bunk'
p4815
I5949
sS'sitting'
p4816
I982
sS'slalom'
p4817
I2782
sS'buns'
p4818
I5950
sS'bunt'
p4819
I5951
sS'adjacent'
p4820
I5952
sS'gate'
p4821
I5953
sS'charging'
p4822
I2783
sS'badly'
p4823
I4923
sS'pokes'
p4824
I5954
sS'description'
p4825
I919
sS'mouths'
p4826
I5955
sS'mess'
p4827
I2784
sS'jumping'
p4828
I923
sS'salsa'
p4829
I1173
sS'parallel'
p4830
I1174
sS'amid'
p4831
I1175
sS'spout'
p4832
I2787
sS'harley'
p4833
I4316
sS'upside'
p4834
I1176
sS'ultimate'
p4835
I931
sS'enter'
p4836
I2788
sS'plumbing'
p4837
I1177
sS'over'
p4838
I5956
sS'underside'
p4839
I4318
sS'jacuzzi'
p4840
I5957
sS'london'
p4841
I4319
sS'crumbs'
p4842
I1178
sS'forehead'
p4843
I1208
sS'writing'
p4844
I5959
sS'destroyed'
p4845
I5960
sS'tourist'
p4846
I4320
sS'clocktower'
p4847
I2789
sS'shadows'
p4848
I4321
sS'potatoes'
p4849
I4322
sS'shadowy'
p4850
I4323
sS'filling'
p4851
I2790
sS'victory'
p4852
I2791
sS'each'
p4853
I969
sS'wheel'
p4854
I2792
sS'signing'
p4855
I2793
sS'hanger'
p4856
I5961
sS'cloths'
p4857
I5962
sS'gymnasium'
p4858
I2794
sS'waffle'
p4859
I4324
sS'celebrating'
p4860
I5963
sS'juggling'
p4861
I1180
sS'magnets'
p4862
I2795
sS'double-decker'
p4863
I4325
sS'driving'
p4864
I5965
sS'god'
p4865
I2796
sS'motel'
p4866
I4326
sS'washed'
p4867
I2797
sS'laid'
p4868
I1181
sS'motes'
p4869
I4327
sS'got'
p4870
I2798
sS'newly'
p4871
I986
sS'washes'
p4872
I4103
sS'rail'
p4873
I2010
sS'free'
p4874
I5967
sS'formation'
p4875
I5968
sS'splashes'
p4876
I4328
sS'grasses'
p4877
I4329
sS'days'
p4878
I1182
sS'outfits'
p4879
I1183
sS'soda'
p4880
I1005
sS'onto'
p4881
I4330
sS'already'
p4882
I2800
sS'gazelle'
p4883
I5971
sS'galley'
p4884
I6284
sS'titled'
p4885
I2575
sS'toy'
p4886
I4331
sS'potty'
p4887
I1457
sS'top'
p4888
I4332
sS'perching'
p4889
I1185
sS'tow'
p4890
I4333
sS'antiques'
p4891
I1015
sS'ton'
p4892
I4335
sS'too'
p4893
I4336
sS'toe'
p4894
I4337
sS'urban'
p4895
I1019
sS'ceiling'
p4896
I2803
sS'centered'
p4897
I5973
sS'tool'
p4898
I2804
sS'brushes'
p4899
I4152
sS'leaking'
p4900
I1186
sS'took'
p4901
I2806
sS'wrapped'
p4902
I721
sS'western'
p4903
I2807
sS'wardrobe'
p4904
I4340
sS'brushed'
p4905
I2808
sS'reclining'
p4906
I1187
sS'strung'
p4907
I988
sS'flame'
p4908
I4341
sS'beard'
p4909
I5430
sS'bridge'
p4910
I1188
sS'donkey'
p4911
I2810
sS'fashion'
p4912
I2811
sS'ram'
p4913
I5975
sS'talking'
p4914
I2812
sS'rat'
p4915
I5977
sS'leafs'
p4916
I2813
sS'kiteboard'
p4917
I2814
sS'leafy'
p4918
I2815
sS'-'
I2816
sS'snow'
p4919
I4343
sS'hatch'
p4920
I1189
sS'rides'
p4921
I5979
sS'rider'
p4922
I5980
sS'though'
p4923
I4344
sS'plenty'
p4924
I4345
sS'coin'
p4925
I5260
sS'glow'
p4926
I5981
sS'peers'
p4927
I4209
sS'treats'
p4928
I2817
sS'partition'
p4929
I5982
sS'flow'
p4930
I2818
sS'jalapenos'
p4931
I4346
sS'orderly'
p4932
I2819
sS'pineapple'
p4933
I4347
sS'entertaining'
p4934
I1191
sS'sanctuary'
p4935
I4348
sS'labels'
p4936
I4799
sS'pops'
p4937
I5986
sS'colors'
p4938
I1193
sS'radio'
p4939
I4349
sS'earth'
p4940
I5987
sS'excitedly'
p4941
I1083
sS'lodge'
p4942
I4350
sS'highchair'
p4943
I5988
sS'mixture'
p4944
I2820
sS'sunglasses'
p4945
I2821
sS'watch'
p4946
I1090
sS'wedding'
p4947
I4187
sS'frying'
p4948
I3103
sS'beads'
p4949
I1096
sS'countries'
p4950
I2822
sS'rowing'
p4951
I5989
sS'licking'
p4952
I5990
sS'plush'
p4953
I5707
sS'shots'
p4954
I2823
sS'automatic'
p4955
I4351
sS'thumbs'
p4956
I4367
sS'nut'
p4957
I2825
sS'noodles'
p4958
I4353
sS'jerseys'
p4959
I4354
sS'mud'
p4960
I1194
sS'mug'
p4961
I1195
sS'finger'
p4962
I1196
sS'approach'
p4963
I4355
sS'handwritten'
p4964
I2826
sS'herding'
p4965
I1197
sS'metal'
p4966
I5983
sS'toothbrush'
p4967
I5991
sS'aquarium'
p4968
I2827
sS'news'
p4969
I1198
sS'flowering'
p4970
I2828
sS'surfer'
p4971
I2579
sS'faced'
p4972
I5992
sS'protect'
p4973
I2829
sS'antelopes'
p4974
I1199
sS'jelly'
p4975
I5993
sS'participating'
p4976
I2830
sS'players'
p4977
I5994
sS'layered'
p4978
I2831
sS'games'
p4979
I4357
sS'faces'
p4980
I5995
sS'towels'
p4981
I2832
sS'majestic'
p4982
I4358
sS'comical'
p4983
I5996
sS'conference'
p4984
I1200
sS'bathroom'
p4985
I5997
sS'beef'
p4986
I2833
sS'bikinis'
p4987
I2834
sS'ropes'
p4988
I2835
sS'been'
p4989
I2836
sS'quickly'
p4990
I4359
sS'submarine'
p4991
I4360
sS'beer'
p4992
I2837
sS'bees'
p4993
I2838
sS'roped'
p4994
I2839
sS'containers'
p4995
I5998
sS'loft'
p4996
I1151
sS'chipped'
p4997
I5710
sS'affixed'
p4998
I5999
sS'craft'
p4999
I6000
sS'catch'
p5000
I6001
sS'glides'
p5001
I1154
sS'glider'
p5002
I4361
sS'cracker'
p5003
I6003
sS'n'
I1201
sS'dashboard'
p5004
I1202
sS'stopping'
p5005
I399
sS'cracked'
p5006
I6004
sS'pyramid'
p5007
I4362
sS'handrail'
p5008
I1203
sS'dumplings'
p5009
I1204
sS'broth'
p5010
I1205
sS'accessories'
p5011
I1206
sS'exterior'
p5012
I4363
sS'containing'
p5013
I2841
sS'nike'
p5014
I1207
sS'intersecting'
p5015
I6005
sS'beside'
p5016
I1179
sS'complex'
p5017
I2842
sS'cross-country'
p5018
I1209
sS'several'
p5019
I2843
sS'satellite'
p5020
I4365
sS'peaks'
p5021
I1210
sS'pick'
p5022
I1737
sS'characters'
p5023
I6007
sS'cycle'
p5024
I6008
sS'ocean'
p5025
I1212
sS'hearty'
p5026
I6009
sS'mother'
p5027
I4366
sS'hearts'
p5028
I6010
sS'jean'
p5029
I1190
sS'snowman'
p5030
I1192
sS'laptop'
p5031
I6011
sS'transporting'
p5032
I4352
sS'depart'
p5033
I221
sS'teenaged'
p5034
I4368
sS'cherry'
p5035
I1214
sS'elf'
p5036
I4369
sS'teenager'
p5037
I4370
sS'clapping'
p5038
I5713
sS'turquoise'
p5039
I2844
sS'casting'
p5040
I4364
sS'mounds'
p5041
I4371
sS'breaks'
p5042
I1215
sS'descending'
p5043
I1216
sS'judge'
p5044
I4372
sS'burnt'
p5045
I1218
sS'apart'
p5046
I2845
sS'melting'
p5047
I1219
sS'appearing'
p5048
I1217
sS'gift'
p5049
I2846
sS'54'
p5050
I4373
sS'50'
p5051
I4374
sS'skulls'
p5052
I4743
sS'officer'
p5053
I1289
sS'hung'
p5054
I4375
sS'petting'
p5055
I4376
sS'proudly'
p5056
I4377
sS'chests'
p5057
I1234
sS'meters'
p5058
I2847
sS'escape'
p5059
I2848
sS'ice'
p5060
I2849
sS'rhino'
p5061
I1220
sS'everything'
p5062
I4378
sS'icy'
p5063
I2850
sS'skylight'
p5064
I1221
sS'christmas'
p5065
I2851
sS'cord'
p5066
I2852
sS'khaki'
p5067
I1222
sS'corn'
p5068
I2853
sS'cork'
p5069
I2854
sS'lamps'
p5070
I4379
sS'dalmatian'
p5071
I4380
sS'garnished'
p5072
I2855
sS'plug'
p5073
I4381
sS'cowboy'
p5074
I4382
sS'surround'
p5075
I2856
sS'dinner'
p5076
I1223
sS'plus'
p5077
I4383
sS'curry'
p5078
I6015
sS'primitive'
p5079
I2857
sS'dials'
p5080
I1224
sS'toothpicks'
p5081
I1225
sS'puzzle'
p5082
I6016
sS'bath'
p5083
I1226
sS'bats'
p5084
I1227
sS'coastal'
p5085
I6017
sS'cafeteria'
p5086
I2858
sS'cubicle'
p5087
I4384
sS'rounds'
p5088
I6018
sS'sunlight'
p5089
I1228
sS'class'
p5090
I4637
sS'stuck'
p5091
I1229
sS'towing'
p5092
I1230
sS'head'
p5093
I2859
sS'medium'
p5094
I2860
sS'amateur'
p5095
I1231
sS'parasails'
p5096
I6019
sS'6'
I3350
sS'wireless'
p5097
I4387
sS'heat'
p5098
I2861
sS'hear'
p5099
I2862
sS'solar'
p5100
I6020
sS'removed'
p5101
I6021
sS'portions'
p5102
I1284
sS'his/her'
p5103
I4446
sS'dollhouse'
p5104
I6022
sS'mannequins'
p5105
I1235
sS'decorate'
p5106
I4388
sS'urn'
p5107
I726
sS'adorn'
p5108
I2863
sS'trim'
p5109
I6024
sS'brightly'
p5110
I2864
sS'trio'
p5111
I6025
sS'shines'
p5112
I4389
sS'trip'
p5113
I2624
sS'constructed'
p5114
I6026
sS'pipe'
p5115
I2865
sS'outstretched'
p5116
I2866
sS'no'
p5117
I2867
sS'when'
p5118
I1236
sS'tin'
p5119
I6028
sS'setting'
p5120
I1237
sS'papers'
p5121
I2491
sS'tie'
p5122
I6029
sS'depot'
p5123
I6030
sS'evergreen'
p5124
I2868
sS'picture'
p5125
I1238
sS'grasps'
p5126
I1239
sS'football'
p5127
I1240
sS'miscellaneous'
p5128
I4390
sS'trailers'
p5129
I2870
sS'younger'
p5130
I6031
sS'radishes'
p5131
I4391
sS'bullet'
p5132
I2871
sS'yacht'
p5133
I4392
sS'uncovered'
p5134
I1320
sS'serious'
p5135
I6032
sS'backward'
p5136
I2872
sS'stacks'
p5137
I6033
sS'coach'
p5138
I4393
sS'remarkable'
p5139
I4501
sS'particular'
p5140
I5716
sS'rod'
p5141
I1241
sS'focus'
p5142
I4394
sS'leads'
p5143
I4395
sS'displaying'
p5144
I2874
sS'row'
p5145
I1242
sS'contemplating'
p5146
I2876
sS'environment'
p5147
I4396
sS'flowered'
p5148
I2877
sS'melon'
p5149
I6035
sS'burners'
p5150
I3086
sS'nesting'
p5151
I4398
sS'tanks'
p5152
I1243
sS'artwork'
p5153
I6036
sS'cook'
p5154
I4399
sS'cool'
p5155
I4400
sS'witting'
p5156
I2879
sS'clouds'
p5157
I1244
sS'impressive'
p5158
I1245
sS'level'
p5159
I1246
sS'posts'
p5160
I1247
sS'brother'
p5161
I6039
sS'cloudy'
p5162
I1248
sS'quick'
p5163
I6040
sS'pork'
p5164
I1249
sS'says'
p5165
I4535
sS'dried'
p5166
I4402
sS'takeoff'
p5167
I2880
sS'bake'
p5168
I2881
sS'bales'
p5169
I1250
sS'port'
p5170
I1251
sS'drinks'
p5171
I6041
sS'stately'
p5172
I1252
sS'unripe'
p5173
I6042
sS'spire'
p5174
I2882
sS'tarmac'
p5175
I2713
sS'goes'
p5176
I1253
sS'hairy'
p5177
I4551
sS'water'
p5178
I6043
sS'baseball'
p5179
I6044
sS'groups'
p5180
I2883
sS'unidentified'
p5181
I2884
sS'healthy'
p5182
I4403
sS'cinnamon'
p5183
I2886
sS'weird'
p5184
I2887
sS'lowers'
p5185
I2888
sS'tuxedo'
p5186
I1254
sS'scarves'
p5187
I2026
sS'projector'
p5188
I4472
sS'sports'
p5189
I4404
sS'handles'
p5190
I4405
sS'handler'
p5191
I4406
sS'prey'
p5192
I4592
sS'iphone'
p5193
I4407
sS'australian'
p5194
I6046
sS'prep'
p5195
I1255
sS'today'
p5196
I1256
sS'smeared'
p5197
I6047
sS'conductor'
p5198
I6048
sS'well-lit'
p5199
I6049
sS'chocolate'
p5200
I2889
sS'carnival'
p5201
I921
sS'beers'
p5202
I6050
sS'cases'
p5203
I1257
sS'autumn'
p5204
I4408
sS'edible'
p5205
I1258
sS'thousands'
p5206
I6290
sS'modified'
p5207
I6051
sS'ferry'
p5208
I6052
sS'meatball'
p5209
I1259
sS'gazelles'
p5210
I1260
sS'pickle'
p5211
I1426
sS'coral'
p5212
I3592
sS'streak'
p5213
I6053
sS'overpass'
p5214
I4409
sS'performer'
p5215
I2890
sS'nursing'
p5216
I1261
sS'figure'
p5217
I1262
sS'tinted'
p5218
I6055
sS'dropped'
p5219
I2891
sS'wiimote'
p5220
I6056
sS'sailboat'
p5221
I1263
sS'secured'
p5222
I6057
sS'brand'
p5223
I5916
sS'1'
I4410
sS'refridgerator'
p5224
I1264
sS'cardinal'
p5225
I4411
sS'fourth'
p5226
I1265
sS'speaks'
p5227
I2892
sS'flavored'
p5228
I2893
sS'crashes'
p5229
I4412
sS'huge'
p5230
I228
sS'motorists'
p5231
I4629
sS'crashed'
p5232
I4413
sS'birthday'
p5233
I6059
sS'tipped'
p5234
I2894
sS'floral'
p5235
I6060
sS'renovation'
p5236
I6061
sS'classroom'
p5237
I6062
sS'branches'
p5238
I6063
sS'liquid'
p5239
I4414
sS'lagoon'
p5240
I6064
sS'hilltop'
p5241
I4415
sS'furnished'
p5242
I4416
sS'mainly'
p5243
I6066
sS'ducklings'
p5244
I6067
sS'blocked'
p5245
I2895
sS'courthouse'
p5246
I2896
sS'appetizers'
p5247
I6068
sS'platform'
p5248
I1478
sS'offers'
p5249
I4417
sS'farmer'
p5250
I1266
sS'swans'
p5251
I6069
sS'cutter'
p5252
I2897
sS'lonely'
p5253
I4418
sS'underneath'
p5254
I4419
sS'fern'
p5255
I1267
sS'wagon'
p5256
I4420
sS'name'
p5257
I1491
sS'trunks'
p5258
I4422
sS'populated'
p5259
I4423
sS'sprinkle'
p5260
I231
sS'catching'
p5261
I1268
sS'zebra'
p5262
I2898
sS'sunrise'
p5263
I6070
sS'tulips'
p5264
I4424
sS'factory'
p5265
I6071
sS'overflowing'
p5266
I1319
sS'eagle'
p5267
I1269
sS'hula'
p5268
I6073
sS'skillfully'
p5269
I4425
sS'grab'
p5270
I4426
sS'roosters'
p5271
I6074
sS'motion'
p5272
I6075
sS'turn'
p5273
I1270
sS'butterflies'
p5274
I262
sS'place'
p5275
I4427
sS'swing'
p5276
I4428
sS'turf'
p5277
I1271
sS'view'
p5278
I6292
sS'teammates'
p5279
I2899
sS'pelican'
p5280
I6076
sS'rafts'
p5281
I3093
sS'parasols'
p5282
I1272
sS'soaring'
p5283
I2900
sS'array'
p5284
I4429
sS'engineer'
p5285
I4430
sS'given'
p5286
I4431
sS'district'
p5287
I4432
sS'virgin'
p5288
I4385
sS'plastic'
p5289
I6077
sS'cooling'
p5290
I1557
sS'convention'
p5291
I2901
sS'white'
p5292
I6078
sS'gives'
p5293
I4434
sS'hug'
p5294
I2902
sS'terrain'
p5295
I3852
sS'hut'
p5296
I2903
sS'released'
p5297
I4436
sS'holder'
p5298
I2904
sS'wide'
p5299
I6080
sS'oats'
p5300
I4437
sS'officials'
p5301
I729
sS'cards'
p5302
I1274
sS'chugs'
p5303
I6081
sS'powder'
p5304
I1275
sS'and'
p5305
I6159
sS'register'
p5306
I3355
sS'pro'
p5307
I4753
sS'rent'
p5308
I4438
sS'ans'
p5309
I2906
sS'exchanging'
p5310
I1276
sS'steers'
p5311
I4386
sS'sells'
p5312
I4439
sS'any'
p5313
I2907
sS'batting'
p5314
I1277
sS'silhouette'
p5315
I6082
sS'dining'
p5316
I2908
sS'thermometer'
p5317
I2909
sS'resembling'
p5318
I1278
sS'surf'
p5319
I1279
sS'sure'
p5320
I1280
sS'multiple'
p5321
I6084
sS'equestrian'
p5322
I1605
sS'falls'
p5323
I2910
sS'visitors'
p5324
I2911
sS'cleared'
p5325
I4440
sS'pencils'
p5326
I6086
sS'seafood'
p5327
I6087
sS'proud'
p5328
I4289
sS'hungry'
p5329
I4441
sS'atvs'
p5330
I2912
sS'senior'
p5331
I6089
sS'cuddled'
p5332
I6090
sS'helmeted'
p5333
I1821
sS'slope'
p5334
I6091
sS'perch'
p5335
I2913
sS'recipe'
p5336
I4797
sS'spaces'
p5337
I1281
sS'gull'
p5338
I1282
sS'written'
p5339
I1283
sS'wood'
p5340
I6092
sS'wool'
p5341
I6093
sS'icebox'
p5342
I4442
sS'lighted'
p5343
I6094
sS'begging'
p5344
I2914
sS'lighter'
p5345
I4815
sS'dye'
p5346
I6095
sS'hedge'
p5347
I4443
sS'installed'
p5348
I235
sS'reveal'
p5349
I4444
sS'aluminum'
p5350
I6096
sS'naked'
p5351
I6097
sS'penguins'
p5352
I2915
sS'bison'
p5353
I839
sS'through'
p5354
I1009
sS'bought'
p5355
I1472
sS'discussing'
p5356
I4445
sS'microphones'
p5357
I1665
sS'reveals'
p5358
I2916
sS'picnic'
p5359
I2917
sS'college'
p5360
I4447
sS'parking'
p5361
I6099
sS'surfaces'
p5362
I1285
sS'fenced-in'
p5363
I6100
sS'bicyclist'
p5364
I2918
sS'crooked'
p5365
I1286
sS'spoons'
p5366
I6102
sS'outside'
p5367
I4449
sS'guitar'
p5368
I1287
sS'diners'
p5369
I4450
sS'pens'
p5370
I2597
sS'comb'
p5371
I1964
sS'come'
p5372
I6104
sS'wanders'
p5373
I4451
sS'efficiency'
p5374
I5455
sS'region'
p5375
I4886
sS'quiet'
p5376
I1288
sS'berry'
p5377
I4452
sS'railway'
p5378
I1290
sS'duty'
p5379
I4453
sS'key'
p5380
I734
sS'color'
p5381
I2919
sS'armchair'
p5382
I4456
sS'pot'
p5383
I4132
sS'hunched'
p5384
I4457
sS'period'
p5385
I1291
sS'pop'
p5386
I4458
sS'sampling'
p5387
I2920
sS'pole'
p5388
I2921
sS'66'
p5389
I4459
sS'polo'
p5390
I2922
sS'poll'
p5391
I2923
sS'turkey'
p5392
I1292
sS'teammate'
p5393
I4460
sS'coupe'
p5394
I2924
sS'peaceful'
p5395
I6105
sS'helicopter'
p5396
I4461
sS'featuring'
p5397
I1293
sS'ravioli'
p5398
I4462
sS'peaking'
p5399
I1294
sS'direction'
p5400
I1295
sS'tiger'
p5401
I4464
sS'eatery'
p5402
I4465
sS'cresting'
p5403
I2926
sS'standup'
p5404
I4466
sS'attentive'
p5405
I6107
sS'pilot'
p5406
I1296
sS'case'
p5407
I1297
sS'wineglasses'
p5408
I4467
sS'mount'
p5409
I4468
sS'twigs'
p5410
I6109
sS'cash'
p5411
I1298
sS'cast'
p5412
I1729
sS'mound'
p5413
I1734
sS'slippers'
p5414
I4469
sS'vest'
p5415
I1740
sS'candies'
p5416
I4470
sS'telephone'
p5417
I6111
sS'couples'
p5418
I4471
sS'good'
p5419
I5728
sS'clutter'
p5420
I2929
sS'helmet'
p5421
I2930
sS'locking'
p5422
I4951
sS'check'
p5423
I4473
sS'bows'
p5424
I6113
sS'macaroni'
p5425
I6114
sS'isle'
p5426
I6115
sS'barefoot'
p5427
I6116
sS'booths'
p5428
I2931
sS'nest'
p5429
I4474
sS'driver'
p5430
I4960
sS'drives'
p5431
I6118
sS'weed'
p5432
I1299
sS'driven'
p5433
I6119
sS'persons'
p5434
I4475
sS'statue'
p5435
I1300
sS'changing'
p5436
I2932
sS'cartoon'
p5437
I4476
sS'implements'
p5438
I2933
sS'omelette'
p5439
I1781
sS'ranch'
p5440
I4477
sS'without'
p5441
I1301
sS'components'
p5442
I6121
sS'model'
p5443
I2934
sS'bodies'
p5444
I1788
sS'desolate'
p5445
I6123
sS'tip'
p5446
I6027
sS'guided'
p5447
I2935
sS'lavish'
p5448
I6125
sS'polish'
p5449
I1302
sS'satin'
p5450
I4478
sS'guides'
p5451
I2936
sS'captured'
p5452
I4985
sS'halfway'
p5453
I4479
sS'blow'
p5454
I6127
sS'womans'
p5455
I2937
sS'rose'
p5456
I4480
sS'seems'
p5457
I4481
sS'except'
p5458
I4991
sS'airfield'
p5459
I1303
sS'lets'
p5460
I1304
sS'shrine'
p5461
I5221
sS'samples'
p5462
I6128
sS'hind'
p5463
I4993
sS'poised'
p5464
I2939
sS'styles'
p5465
I6129
sS'holding'
p5466
I5222
sS'fridge'
p5467
I5006
sS'styled'
p5468
I6131
sS'confined'
p5469
I4482
sS'sheared'
p5470
I2940
sS'towel'
p5471
I1306
sS'bracelet'
p5472
I4484
sS'oddly'
p5473
I6132
sS'tower'
p5474
I1307
sS'pacific'
p5475
I2941
sS'cowboys'
p5476
I2942
sS'freez'
p5477
I1308
sS'slice'
p5478
I6133
sS'bento'
p5479
I1309
sS'shirtless'
p5480
I2943
sS'longboard'
p5481
I2944
sS'stops'
p5482
I5035
sS'moon'
p5483
I1310
sS'hipster'
p5484
I1853
sS'provides'
p5485
I2945
sS'diced'
p5486
I1311
sS'eiffel'
p5487
I2869
sS'beached'
p5488
I1312
sS'nails'
p5489
I305
sS'inspect'
p5490
I6134
sS'wades'
p5491
I291
sS'jeep'
p5492
I4485
sS'of'
p5493
I2948
sS'shrimp'
p5494
I4486
sS'stand'
p5495
I4487
sS'ox'
p5496
I2949
sS'os'
p5497
I2950
sS'or'
p5498
I517
sS'ladies'
p5499
I4488
sS'instruments'
p5500
I1874
sS'wildebeests'
p5501
I1313
sS'garb'
p5502
I4489
sS'rising'
p5503
I1314
sS'bends'
p5504
I1769
sS'buds'
p5505
I4490
sS'there'
p5506
I1315
sS'ferris'
p5507
I6135
sS'valley'
p5508
I6136
sS'fish'
p5509
I6137
sS'illuminated'
p5510
I5089
sS'kittens'
p5511
I4491
sS'amongst'
p5512
I4492
sS'cabinet'
p5513
I6138
sS'illuminates'
p5514
I2952
sS'grass'
p5515
I1316
sS'toilet'
p5516
I6139
sS'taste'
p5517
I1317
sS'alarm'
p5518
I3938
sS'tasty'
p5519
I1318
sS'beds'
p5520
I498
sS'rubber'
p5521
I6141
sS'roses'
p5522
I1321
sS'5'
I6142
sS'trash'
p5523
I6143
sS'pillows'
p5524
I1322
sS'separate'
p5525
I6144
sS'symbol'
p5526
I6145
sS'midair'
p5527
I5126
sS'cordless'
p5528
I1323
sS'brass'
p5529
I4493
sS'lipstick'
p5530
I246
sS'wife'
p5531
I1324
sS'curve'
p5532
I2955
sS'curvy'
p5533
I2956
sS'apparel'
p5534
I4494
sS'peeks'
p5535
I6146
sS'platter'
p5536
I1325
sS'all'
p5537
I1954
sS'lace'
p5538
I6147
sS'chinese'
p5539
I4495
sS'wreath'
p5540
I3761
sS'ladders'
p5541
I4497
sS'surgical'
p5542
I2958
sS'disc'
p5543
I4498
sS'parmesan'
p5544
I2959
sS'dish'
p5545
I4499
sS'follow'
p5546
I2960
sS'disk'
p5547
I4500
sS'apartment'
p5548
I1326
sS'lining'
p5549
I6148
sS'sparkling'
p5550
I6149
sS'program'
p5551
I2961
sS'dairy'
p5552
I1327
sS'presentation'
p5553
I2962
sS'tethered'
p5554
I1329
sS'activities'
p5555
I4502
sS'woman'
p5556
I2963
sS'song'
p5557
I6150
sS'far'
p5558
I6151
sS'grinds'
p5559
I6152
sS'fat'
p5560
I6153
sS'sweaters'
p5561
I3990
sS'fan'
p5562
I6156
sS'sony'
p5563
I6157
sS'bubbles'
p5564
I2964
sS'grandfather'
p5565
I2965
sS'trench'
p5566
I2966
sS'cluttered'
p5567
I1330
sS'teh'
p5568
I2967
sS'ten'
p5569
I2968
sS'tea'
p5570
I2969
sS'built-in'
p5571
I5175
sS'tee'
p5572
I2970
sS'design'
p5573
I2971
sS'cheeses'
p5574
I4504
sS'what'
p5575
I4505
sS'snow-covered'
p5576
I4506
sS'sub'
p5577
I1331
sS'sun'
p5578
I1332
sS'crust'
p5579
I4507
sS'brief'
p5580
I1333
sS'suv'
p5581
I1334
sS'version'
p5582
I1335
sS'racing'
p5583
I4508
sS'guns'
p5584
I2972
sS'multitude'
p5585
I4509
sS'sunbathers'
p5586
I1336
sS'toes'
p5587
I1337
sS'tags'
p5588
I4510
sS'half-eaten'
p5589
I3469
sS'directions'
p5590
I2973
sS'observing'
p5591
I6160
sS'naval'
p5592
I1338
sS'handlers'
p5593
I5199
sS'siamese'
p5594
I6161
sS'allows'
p5595
I6162
sS'cucumbers'
p5596
I6163
sS'miniature'
p5597
I5202
sS'milkshake'
p5598
I1339
sS'options'
p5599
I2974
sS'sticking'
p5600
I2975
sS'guacamole'
p5601
I1340
sS'screens'
p5602
I2976
sS'texts'
p5603
I2977
sS'armoire'
p5604
I2978
sS'appliances'
p5605
I6164
sS'proceed'
p5606
I4511
sS'donuts'
p5607
I1341
sS'charge'
p5608
I4397
sS'rustic'
p5609
I1342
sS'garnish'
p5610
I1343
sS'horses'
p5611
I1344
sS'flat'
p5612
I1345
sS'grabbing'
p5613
I6166
sS'owners'
p5614
I3365
sS'flag'
p5615
I1346
sS'stick'
p5616
I6167
sS'rooster'
p5617
I1482
sS'policemen'
p5618
I2979
sS'gothic'
p5619
I2980
sS'pony'
p5620
I4512
sS'sectioned'
p5621
I2981
sS'urinals'
p5622
I6168
sS'pond'
p5623
I4513
sS'airplane'
p5624
I5246
sS'swung'
p5625
I4515
sS'offspring'
p5626
I2982
sS'extinguisher'
p5627
I2983
sS'court'
p5628
I4516
sS'goal'
p5629
I2062
sS'rather'
p5630
I1347
sS'breaking'
p5631
I2984
sS'speeding'
p5632
I6169
sS'goat'
p5633
I4517
sS'tinfoil'
p5634
I1348
sS'sandwich'
p5635
I6170
sS'reflect'
p5636
I6171
sS'panoramic'
p5637
I2985
sS'lighting'
p5638
I1350
sS'softball'
p5639
I4518
sS'concentrating'
p5640
I1351
sS'short'
p5641
I1352
sS'shady'
p5642
I4519
sS'footed'
p5643
I2986
sS'shore'
p5644
I1353
sS'shade'
p5645
I4520
sS'shorn'
p5646
I193
sS'maneuver'
p5647
I6072
sS'handlebars'
p5648
I2987
sS'avenue'
p5649
I1354
sS'style'
p5650
I4521
sS'glide'
p5651
I2989
sS'mattress'
p5652
I1355
sS'resort'
p5653
I4522
sS'blenders'
p5654
I4523
sS'soccer'
p5655
I1356
sS'might'
p5656
I2990
sS'alter'
p5657
I3076
sS'somebody'
p5658
I1357
sS'sucking'
p5659
I4524
sS'eclectic'
p5660
I5463
sS'tortillas'
p5661
I6037
sS'hairdryer'
p5662
I4525
sS'bigger'
p5663
I2992
sS'instructions'
p5664
I1358
sS'policeman'
p5665
I6038
sS'cobblestones'
p5666
I6176
sS'snowboarders'
p5667
I4526
sS'tilted'
p5668
I1359
sS'weight'
p5669
I1360
sS'fixture'
p5670
I6178
sS'scratching'
p5671
I2994
sS'alcohol'
p5672
I442
sS'linens'
p5673
I2995
sS'dugout'
p5674
I6179
sS'krispy'
p5675
I4528
sS'hill'
p5676
I1361
sS'remodeling'
p5677
I4529
sS'tractors'
p5678
I2158
sS'cookie'
p5679
I4530
sS'attendant'
p5680
I2997
sS'sidewalk'
p5681
I5230
sS'bushes'
p5682
I4531
sS'thread'
p5683
I6180
sS'snowboarding'
p5684
I1362
sS'fallen'
p5685
I1363
sS'throws'
p5686
I2998
sS'bushel'
p5687
I4532
sS'feed'
p5688
I4533
sS'feel'
p5689
I4534
sS'dries'
p5690
I1364
sS'fancy'
p5691
I6181
sS'feet'
p5692
I1620
sS'sailor'
p5693
I2179
sS'blank'
p5694
I2999
sS'traveler'
p5695
I1365
sS'passes'
p5696
I6182
sS'story'
p5697
I1366
sS'temperature'
p5698
I3000
sS'gourmet'
p5699
I4536
sS'leading'
p5700
I1615
sS'interact'
p5701
I6183
sS'comfy'
p5702
I1368
sS'rails'
p5703
I3001
sS'collar'
p5704
I3002
sS'stork'
p5705
I1369
sS'storm'
p5706
I2193
sS'syrup'
p5707
I6186
sS'outcropping'
p5708
I1370
sS'store'
p5709
I1371
sS'gps'
p5710
I1372
sS'attendants'
p5711
I3003
sS'pump'
p5712
I2519
sS'hotel'
p5713
I4539
sS'rifle'
p5714
I2200
sS'uncut'
p5715
I3004
sS'surfboard'
p5716
I5466
sS'king'
p5717
I1373
sS'kind'
p5718
I1374
sS'double'
p5719
I6187
sS'instruction'
p5720
I3005
sS'aims'
p5721
I4540
sS'stall'
p5722
I6188
sS'stalk'
p5723
I6189
sS'outdoors'
p5724
I4541
sS'dispenser'
p5725
I3006
sS'cleaner'
p5726
I6190
sS'uniforms'
p5727
I3007
sS'skyscrapers'
p5728
I1375
sS'alike'
p5729
I5363
sS'cleaned'
p5730
I6191
sS'rugs'
p5731
I3008
sS'sandwiches'
p5732
I6193
sS'added'
p5733
I5374
sS'electric'
p5734
I1376
sS'reach'
p5735
I6194
sS'react'
p5736
I6195
sS'cigarette'
p5737
I4542
sS'storefronts'
p5738
I1377
sS'nothing'
p5739
I4543
sS'stands'
p5740
I4544
sS'patterned'
p5741
I1378
sS'draped'
p5742
I4146
sS'windows'
p5743
I5382
sS'doggie'
p5744
I6196
sS'traditional'
p5745
I1379
sS'bandanna'
p5746
I3109
sS'lying'
p5747
I1380
sS'stones'
p5748
I3009
sS'loveseat'
p5749
I6197
sS'asphalt'
p5750
I3010
sS'cds'
p5751
I4545
sS'font'
p5752
I6198
sS'gilded'
p5753
I4546
sS'deserts'
p5754
I3011
sS'camel'
p5755
I1486
sS'grazes'
p5756
I1381
sS'atv'
p5757
I4723
sS'hip'
p5758
I6199
sS'shepherd'
p5759
I4547
sS'his'
p5760
I6200
sS'triangle'
p5761
I1382
sS'shared'
p5762
I511
sS'him'
p5763
I5413
sS'nibbles'
p5764
I4548
sS'investigate'
p5765
I4549
sS'activity'
p5766
I3013
sS'wheeling'
p5767
I4550
sS'engraved'
p5768
I1383
sS'snowstorm'
p5769
I3014
sS'wrote'
p5770
I1384
sS'suckling'
p5771
I4552
sS'stump'
p5772
I5425
sS'skills'
p5773
I5496
sS'barb'
p5774
I4607
sS'bare'
p5775
I5432
sS'are'
p5776
I5433
sS'bark'
p5777
I6206
sS'arm'
p5778
I117
sS'barn'
p5779
I6207
sS'youth'
p5780
I5741
sS'learns'
p5781
I6208
sS'nailed'
p5782
I3015
sS'nutella'
p5783
I6209
sS'unpaved'
p5784
I6210
sS'creme'
p5785
I5444
sS'various'
p5786
I6211
sS'plywood'
p5787
I6212
sS'numerous'
p5788
I4553
sS'solo'
p5789
I1386
sS'recently'
p5790
I3017
sS'creating'
p5791
I4554
sS'sold'
p5792
I1387
sS'attention'
p5793
I2319
sS'outfit'
p5794
I4555
sS'bronze'
p5795
I3018
sS'blazer'
p5796
I6213
sS'license'
p5797
I3019
sS'roman'
p5798
I4556
sS'flies'
p5799
I3020
sS'sweet'
p5800
I1388
sS'village'
p5801
I1389
sS'goats'
p5802
I4557
sS'suspenders'
p5803
I6214
sS'overlook'
p5804
I5477
sS'political'
p5805
I4558
sS'due'
p5806
I5478
sS'dug'
p5807
I3022
sS'pc'
p5808
I5480
sS'brick'
p5809
I5483
sS'pm'
p5810
I3023
sS'affectionate'
p5811
I1390
sS'siting'
p5812
I4559
sS'referee'
p5813
I4560
sS'flight'
p5814
I1391
sS'firefighters'
p5815
I4561
sS'rocking'
p5816
I4562
sS'instructor'
p5817
I1392
sS'plants'
p5818
I4563
sS'guarding'
p5819
I256
sS'frozen'
p5820
I1393
sS'batch'
p5821
I3024
sS'parachutes'
p5822
I3025
sS'barricade'
p5823
I4564
sS'theres'
p5824
I3026
sS'knob'
p5825
I6312
sS'leans'
p5826
I5518
sS'obstacle'
p5827
I1394
sS'nightstand'
p5828
I2370
sS'rig'
p5829
I6219
sS'waterside'
p5830
I4565
sS'propping'
p5831
I6220
sS'kimono'
p5832
I4566
sS'peoples'
p5833
I4567
sS'sliver'
p5834
I3027
sS'arrives'
p5835
I3028
sS'table..'
p5836
I4568
sS'cement'
p5837
I1397
sS'holidays'
p5838
I4570
sS'flown'
p5839
I4571
sS'arrived'
p5840
I3029
sS'lower'
p5841
I3030
sS'noodle'
p5842
I6222
sS'cheek'
p5843
I4572
sS'bounces'
p5844
I3031
sS'edge'
p5845
I6223
sS'machinery'
p5846
I1398
sS'stating'
p5847
I4574
sS'hotdog'
p5848
I6224
sS'knot'
p5849
I6316
sS'pigeons'
p5850
I3032
sS'competitive'
p5851
I3033
sS'inspecting'
p5852
I5891
sS'tables'
p5853
I4575
sS'loading'
p5854
I3034
sS'tablet'
p5855
I4576
sS'workers'
p5856
I4577
sS'exhibition'
p5857
I1971
sS'customers'
p5858
I4578
sS'vendor'
p5859
I4579
sS'dvds'
p5860
I3035
sS'spires'
p5861
I4580
sS'seperate'
p5862
I6225
sS'shaped'
p5863
I4581
sS'airshow'
p5864
I3036
sS'shapes'
p5865
I4582
sS'streaming'
p5866
I3037
sS'litter'
p5867
I5579
sS'marmalade'
p5868
I6226
sS'candy'
p5869
I2334
sS'sauces'
p5870
I2446
sS'saucer'
p5871
I1399
sS'sized'
p5872
I1400
sS'prop'
p5873
I6227
sS'retro'
p5874
I2457
sS'bartender'
p5875
I5592
sS'bookshelves'
p5876
I3038
sS'perpendicular'
p5877
I1401
sS'zombie'
p5878
I1402
sS'intense'
p5879
I6229
sS'handled'
p5880
I4250
sS'kitchenette'
p5881
I1403
sS'completing'
p5882
I6230
sS'plaza'
p5883
I1404
sS'wineglass'
p5884
I3039
sS'surfers'
p5885
I2469
sS'range'
p5886
I1405
sS'plethora'
p5887
I4583
sS'momma'
p5888
I4584
sS'iwth'
p5889
I6231
sS'couches'
p5890
I4401
sS'canal'
p5891
I3040
sS'rows'
p5892
I1406
sS'question'
p5893
I1407
sS'fast'
p5894
I3041
sS'vendors'
p5895
I3042
sS'sections'
p5896
I4585
sS'files'
p5897
I4586
sS'mountains'
p5898
I5149
sS'skewers'
p5899
I6233
sS'raisins'
p5900
I4587
sS'cloth'
p5901
I4588
sS'delta'
p5902
I4589
sS'upright'
p5903
I5636
sS'crane'
p5904
I6234
sS'shutters'
p5905
I4590
sS'penguin'
p5906
I4591
sS'landscaped'
p5907
I1408
sS'fries'
p5908
I3043
sS'fried'
p5909
I3044
sS'called'
p5910
I6235
sS'soars'
p5911
I6237
sS'sepia'
p5912
I1409
sS'warning'
p5913
I3648
sS'rally'
p5914
I1410
sS'rainbow'
p5915
I1411
sS'rainy'
p5916
I4593
sS'lemon'
p5917
I3045
sS'peach'
p5918
I1412
sS'rains'
p5919
I4594
sS'peace'
p5920
I1413
sS'backs'
p5921
I1414
sS'towers'
p5922
I2055
sS'parlor'
p5923
I4595
sS'nice'
p5924
I1415
sS'mustard'
p5925
I4596
sS'helping'
p5926
I4597
sS'donkeys'
p5927
I4972
sS'insect'
p5928
I4194
sS'allowing'
p5929
I1416
sS'posters'
p5930
I1417
sS'pottery'
p5931
I3046
sS'attacking'
p5932
I1789
sS'waxing'
p5933
I5696
sS'nasa'
p5934
I3047
sS'buffalo'
p5935
I1418
sS'once'
p5936
I4599
sS'hooks'
p5937
I4600
sS'windy'
p5938
I1419
sS'gang'
p5939
I1420
sS'winds'
p5940
I1421
sS'magnifying'
p5941
I6240
sS'cupboards'
p5942
I6241
sS'peering'
p5943
I3048
sS'languages'
p5944
I1422
sS'stable'
p5945
I3049
sS'include'
p5946
I1423
sS'fences'
p5947
I6243
sS'rag'
p5948
I5974
sS'ladle'
p5949
I2590
sS'spool'
p5950
I4601
sS'spoon'
p5951
I4602
sS'drinking'
p5952
I3051
sS'notes'
p5953
I6244
sS'smaller'
p5954
I4603
sS'gripping'
p5955
I2613
sS'goodies'
p5956
I4604
sS'wrestling'
p5957
I1424
sS'procession'
p5958
I6245
sS'fold'
p5959
I2622
sS'traveling'
p5960
I4605
sS'showcase'
p5961
I1425
sS'waiting'
p5962
I6246
sS'capital'
p5963
I4606
sS'cozy'
p5964
I5759
sS'pushing'
p5965
I5762
sS'indicator'
p5966
I1791
sS'oars'
p5967
I5765
sS'sexy'
p5968
I3052
sS'cyclist'
p5969
I5767
sS'metro'
p5970
I6248
sS'larger'
p5971
I1427
sS'shades'
p5972
I1428
sS'leaving'
p5973
I1429
sS'submerged'
p5974
I1430
sS'shaded'
p5975
I1431
sS'shovel'
p5976
I6250
sS'apple'
p5977
I6251
sS'duct'
p5978
I2619
sS'black-and-white'
p5979
I6252
sS'motor'
p5980
I6253
sS'duck'
p5981
I2824
sS'use'
p5982
I5248
sS'from'
p5983
I1433
sS'usb'
p5984
I3054
sS'consumption'
p5985
I4608
sS'&'
I3056
sS'rackett'
p5986
I3057
sS'rackets'
p5987
I3058
sS'few'
p5988
I3059
sS'depicted'
p5989
I3060
sS'sort'
p5990
I5804
sS'parliament'
p5991
I3061
sS'porch'
p5992
I6255
sS'musician'
p5993
I3062
sS'parrots'
p5994
I1435
sS'rabbit'
p5995
I6256
sS'women'
p5996
I3995
sS'wtih'
p5997
I6257
sS'duster'
p5998
I4609
sS'getting'
p5999
I6258
sS'napkins'
p6000
I3226
sS'perched'
p6001
I5753
sS'posing'
p6002
I5245
sS'spilled'
p6003
I6327
sS'performed'
p6004
I4610
sS'patrol'
p6005
I4611
sS'tar'
p6006
I6261
sS'pad'
p6007
I5661
sS'parasailers'
p6008
I4612
sS'dripping'
p6009
I3064
sS'carrot'
p6010
I3065
sS'something'
p6011
I3066
sS'tan'
p6012
I6263
sS'onions'
p6013
I6264
sS'united'
p6014
I3067
sS'sit'
p6015
I4614
sS'six'
p6016
I4615
sS'sidewalks'
p6017
I1437
sS'instead'
p6018
I4616
sS'toddler'
p6019
I1438
sS'typewriter'
p6020
I1439
sS'cupboard'
p6021
I3069
sS'barricades'
p6022
I3070
sS'wrist'
p6023
I1440
sS'taco'
p6024
I1441
sS'faucets'
p6025
I1442
sS'sculptures'
p6026
I6265
sS'light'
p6027
I4617
sS'straps'
p6028
I5861
sS'crawling'
p6029
I6266
sS'necklace'
p6030
I2710
sS'rusted'
p6031
I4618
sS'freezer'
p6032
I3631
sS'underwater'
p6033
I6267
sS'grafitti'
p6034
I4619
sS'ships'
p6035
I3071
sS'choose'
p6036
I6268
sS'turban'
p6037
I3072
sS'orange'
p6038
I3073
sS'clusters'
p6039
I4620
sS'holiday'
p6040
I1443
sS'crowds'
p6041
I1444
sS'crash'
p6042
I6270
sS'mote'
p6043
I1812
sS'flour'
p6044
I6271
sS'material'
p6045
I4622
sS'oranges'
p6046
I2733
sS'flea'
p6047
I4623
sS'articles'
p6048
I1445
sS'easel'
p6049
I6273
sS'tram'
p6050
I6274
sS'feast'
p6051
I4624
sS'trimmed'
p6052
I1446
sS'blacktop'
p6053
I5910
sS'bills'
p6054
I4625
sS'tray'
p6055
I6275
sS'florets'
p6056
I3074
sS'related'
p6057
I4626
sS'sectional'
p6058
I6276
sS'our'
p6059
I1447
sS'shearing'
p6060
I4627
sS'out'
p6061
I1448
sS'cocktail'
p6062
I6058
sS'parasailing'
p6063
I6277
sS'herded'
p6064
I1449
sS'performs'
p6065
I3075
sS'herder'
p6066
I1450
sS'attentively'
p6067
I2769
sS'pours'
p6068
I1451
sS'utensil'
p6069
I1452
sS'ipod'
p6070
I4628
sS'york'
p6071
I6279
sS'dumpster'
p6072
I6280
sS'repairing'
p6073
I4630
sS'river'
p6074
I4978
sS'organic'
p6075
I1453
sS'conversation'
p6076
I6281
sS'manicured'
p6077
I3078
sS'biting'
p6078
I1454
sS'toasters'
p6079
I6282
sS'bouquet'
p6080
I3079
sS'umbrellas'
p6081
I1455
sS'destinations'
p6082
I6283
sS'unknown'
p6083
I1456
sS'accent'
p6084
I5972
sS'their'
p6085
I2802
sS'dismantled'
p6086
I1884
sS'photoshopped'
p6087
I3080
sS'lufthansa'
p6088
I311
sS'shell'
p6089
I4631
sS'shelf'
p6090
I4632
sS'shallow'
p6091
I3081
sS'motorcycle'
p6092
I5071
sS'slides'
p6093
I3082
sS'slider'
p6094
I3083
sS'reflecting'
p6095
I4633
sS'sculpture'
p6096
I6286
sS'clip'
p6097
I1458
sS'fowl'
p6098
I1459
sS'teenagers'
p6099
I1460
sS'linked'
p6100
I1461
sS'angle'
p6101
I4635
sS'bagel'
p6102
I6287
sS'which'
p6103
I4636
sS'vegetation'
p6104
I3084
sS'pretzels'
p6105
I1462
sS'who'
p6106
I1463
sS'why'
p6107
I1464
sS'statute'
p6108
I4638
sS'skying'
p6109
I1465
sS'looked'
p6110
I3085
sS'balding'
p6111
I2875
sS'please'
p6112
I5761
sS'stove'
p6113
I4639
sS'seaweed'
p6114
I6288
sS'chicken'
p6115
I6289
sS'filmed'
p6116
I3087
sS'mugs'
p6117
I6045
sS'clutching'
p6118
I3088
sS'combs'
p6119
I4640
sS'surroundings'
p6120
I4641
sS'sunflowers'
p6121
I3089
sS'combo'
p6122
I4642
sS'piano'
p6123
I4643
sS'local'
p6124
I1466
sS'cube'
p6125
I1467
sS'watching'
p6126
I4644
sS'ones'
p6127
I6291
sS'cubs'
p6128
I1468
sS'words'
p6129
I6065
sS'chips'
p6130
I4645
sS'cutout'
p6131
I1035
sS'married'
p6132
I1469
sS'futuristic'
p6133
I3091
sS'saucers'
p6134
I4646
sS'unison'
p6135
I3092
sS'available'
p6136
I3385
sS'turbulent'
p6137
I6293
sS'barrels'
p6138
I3094
sS'closer'
p6139
I6083
sS'still'
p6140
I3095
sS'closet'
p6141
I6294
sS'meatballs'
p6142
I3096
sS'identification'
p6143
I1470
sS'closed'
p6144
I6295
sS'crude'
p6145
I1471
sS'limit'
p6146
I2345
sS'barbeque'
p6147
I4647
sS'opening'
p6148
I1473
sS'beverages'
p6149
I6297
sS'huts'
p6150
I6298
sS'job'
p6151
I1474
sS'ottoman'
p6152
I727
sS'stucco'
p6153
I1475
sS'grain'
p6154
I6299
sS'canopy'
p6155
I6120
sS'grounds'
p6156
I1476
sS'wall'
p6157
I4648
sS'walk'
p6158
I4649
sS'packaging'
p6159
I3098
sS'table'
p6160
I3099
sS'trays'
p6161
I4650
sS'motorbike'
p6162
I1477
sS'decent'
p6163
I1479
sS'bbq'
p6164
I6300
sS'spacious'
p6165
I534
sS'penny'
p6166
I5487
sS'painted'
p6167
I3100
sS'kisses'
p6168
I774
sS'dressers'
p6169
I2957
sS'unpeeled'
p6170
I4651
sS'present'
p6171
I4652
sS'abandoned'
p6172
I4653
sS'vanilla'
p6173
I6301
sS'choices'
p6174
I6302
sS'will'
p6175
I6303
sS'hovering'
p6176
I5328
sS'wild'
p6177
I6305
sS'layer'
p6178
I3101
sS'motif'
p6179
I1481
sS'pews'
p6180
I4655
sS'bystanders'
p6181
I4656
sS'layed'
p6182
I3102
sS'dual'
p6183
I4297
sS'ave'
p6184
I3104
sS'perhaps'
p6185
I1483
sS'vintage'
p6186
I6306
sS'cross'
p6187
I6173
sS'member'
p6188
I3106
sS'units'
p6189
I2991
sS'gets'
p6190
I4657
sS'tomatoes'
p6191
I4658
sS'difficult'
p6192
I2993
sS'cellphones'
p6193
I4659
sS'coaches'
p6194
I4660
sS'student'
p6195
I4661
sS'pedal'
p6196
I4662
sS'whale'
p6197
I4663
sS'lobby'
p6198
I4664
sS'warming'
p6199
I1484
sS'gutter'
p6200
I4665
sS'plowed'
p6201
I4666
sS'contest'
p6202
I1485
sS'unpacked'
p6203
I6307
sS'fighting'
p6204
I3107
sS'scissor'
p6205
I3108
sS'spectator'
p6206
I4668
sS'english'
p6207
I6308
sS'1950'
p6208
I3636
sS'bending'
p6209
I3110
sS'rocket'
p6210
I6309
sS'heavily'
p6211
I3012
sS'batteries'
p6212
I4669
sS'fishing'
p6213
I3111
sS'toilets'
p6214
I4670
sS'rapid'
p6215
I3112
sS'console'
p6216
I4671
sS'supply'
p6217
I2638
sS'dinning'
p6218
I3021
sS'book'
p6219
I6332
sS'attractive'
p6220
I4672
sS'jars'
p6221
I1487
sS'ski'
p6222
I6311
sS'identical'
p6223
I6217
sS'sick'
p6224
I6313
sS'protesters'
p6225
I6314
sS'know'
p6226
I6315
sS'facial'
p6227
I1488
sS'catchers'
p6228
I1489
sS'press'
p6229
I1490
sS'doughnut'
p6230
I4673
sS'because'
p6231
I6317
sS'sequence'
p6232
I6318
sS'mattresses'
p6233
I3113
sS'searching'
p6234
I6319
sS'clydesdale'
p6235
I3114
sS'platforms'
p6236
I4674
sS'growth'
p6237
I3115
sS'empire'
p6238
I6320
sS'meatloaf'
p6239
I1492
sS'leaf'
p6240
I6239
sS'lead'
p6241
I6321
sS'lean'
p6242
I6322
sS'markers'
p6243
I3116
sS'leap'
p6244
I6323
sS'earrings'
p6245
I3117
sS'ripped'
p6246
I1493
sS'conveyer'
p6247
I3118
sS'dangling'
p6248
I4675
sS'mitt'
p6249
I6324
sS'pasta'
p6250
I1494
sS'paste'
p6251
I1495
sS'rare'
p6252
I1496
sS'carried'
p6253
I1497
sS'saddle'
p6254
I3119
sS'column'
p6255
I6259
sS'haired'
p6256
I5966
sS'biscuit'
p6257
I6260
sS'shipping'
p6258
I6328
sS'carries'
p6259
I1498
sS'carrier'
p6260
I1499
sS'sweat'
p6261
I3068
sS'sandwhich'
p6262
I6333
sS'owl'
p6263
I3120
sS'own'
p6264
I3121
sS'polished'
p6265
I1500
sS'wilderness'
p6266
I1501
sS'travelers'
p6267
I4676
sS'pajamas'
p6268
I5038
sS'weather'
p6269
I1502
sS'brush'
p6270
I6329
sS'birdhouse'
p6271
I1503
sS'rowboat'
p6272
I3122
sS'van'
p6273
I3077
sS'spiral'
p6274
I1504
sS'groomed'
p6275
I3123
sS'continental'
p6276
I3124
sS'powdered'
p6277
I6285
sS'cliff'
p6278
I1515
sS'catsup'
p6279
I1505
sS'automated'
p6280
I1506
sS'made'
p6281
I4677
sS'hitter'
p6282
I3090
sS'protesting'
p6283
I1507
sS'record'
p6284
I3125
sS'below'
p6285
I4678
sS'cake'
p6286
I3097
sS'stirring'
p6287
I4679
sS'maroon'
p6288
I1508
sS'boardwalk'
p6289
I3126
sS'sheered'
p6290
I1509
sS'trotting'
p6291
I3127
sS'trailing'
p6292
I3105
sS'incredible'
p6293
I1510
sS'boot'
p6294
I6331
sS'waterskiing'
p6295
I4680
sS'curtained'
p6296
I1511
sS'other'
p6297
I3128
sS'branch'
p6298
I5379
sS'sloping'
p6299
I3129
sS'junk'
p6300
I3251
sS'kinds'
p6301
I1512
sS'shredded'
p6302
I1513
sS'mulch'
p6303
I3130
sS'pumps'
p6304
I1514
sS'upwards'
p6305
I3131
sS'rotting'
p6306
I6334
ssS'index'
p6307
I6335
sS'index_to_word'
p6308
(lp6309
g2558
ag2386
ag3241
ag11
ag12
ag21
ag23
ag25
ag31
ag37
ag40
ag42
ag43
ag47
ag49
ag52
ag53
ag58
ag69
ag78
ag80
ag88
ag569
ag2127
ag93
ag103
ag104
ag107
ag108
ag2133
ag119
ag4236
ag130
ag132
ag151
ag152
ag155
ag167
ag169
ag174
ag2149
ag2150
ag181
ag188
ag2152
ag1209
ag199
ag203
ag215
ag216
ag217
ag223
ag225
ag227
ag228
ag231
ag237
ag246
ag253
ag261
ag266
aS'.'
ag268
ag270
ag50
ag285
ag1668
ag289
ag293
ag298
ag302
ag307
ag309
ag311
ag312
ag315
ag1837
ag317
ag323
ag324
ag334
ag336
ag2169
ag1936
ag339
ag342
ag349
ag350
ag354
ag367
ag368
ag371
ag373
ag376
ag2190
ag388
ag389
ag391
ag4280
ag61
ag402
ag406
ag408
ag409
ag416
ag417
ag418
ag420
ag425
ag428
ag2426
ag433
ag434
ag442
ag444
ag446
ag447
ag5778
ag448
ag449
ag454
ag456
ag458
ag463
ag471
ag4485
ag475
ag482
ag485
ag489
ag491
ag493
ag494
ag498
ag512
ag520
ag523
ag536
ag2193
ag544
ag548
ag549
ag4310
ag550
ag551
ag3087
ag557
ag91
ag577
ag593
ag598
ag3350
ag602
ag609
ag611
ag618
ag620
ag3428
ag622
ag623
ag627
ag651
ag652
ag653
ag656
ag661
ag3728
ag686
aS's'
ag688
ag689
ag702
ag708
ag711
ag715
ag4334
ag719
ag720
ag725
ag726
ag4089
ag728
ag4339
ag736
ag737
ag740
ag4248
ag746
ag748
ag756
ag2213
ag757
ag759
ag5646
ag769
ag773
ag789
ag790
ag792
ag798
ag802
ag803
ag805
ag812
ag817
ag819
ag821
ag826
ag829
ag831
ag837
ag850
ag859
ag862
ag864
ag866
ag867
ag871
ag876
ag877
ag878
ag5033
ag897
ag899
ag902
ag907
ag908
ag909
ag5230
ag918
ag921
ag5260
ag932
ag933
ag940
ag5348
ag946
ag948
ag950
ag952
ag956
ag957
ag958
ag959
ag960
ag968
ag5530
ag976
ag149
ag979
ag981
ag982
ag2253
ag1122
ag2254
ag1001
ag5819
ag1006
ag1007
ag1008
ag1010
ag1011
ag5274
ag1018
ag1023
ag1025
ag1026
ag1027
ag1031
ag1034
ag4390
ag1035
ag1036
ag1039
ag1045
ag1052
ag1053
ag2263
ag1060
ag168
ag1068
ag1069
ag2268
ag1080
ag1096
ag39
ag1100
ag1103
ag2400
ag90
ag1119
ag5491
ag1133
ag1137
ag1143
ag295
ag1152
ag1162
ag1168
ag1172
ag1173
ag1176
ag1148
ag1925
ag567
ag5489
ag1182
ag1186
ag1187
ag1200
ag1206
ag6088
ag1216
ag1217
ag824
ag1229
ag1230
ag1240
ag2292
ag1241
ag1245
ag1252
ag1266
ag1268
ag1269
ag1270
ag1271
ag2299
ag1276
ag1277
ag1279
ag1282
ag2302
ag1285
ag1291
ag1294
ag1295
ag1296
ag1298
ag2307
ag4429
ag1326
ag1331
ag1442
ag1333
ag4433
ag1344
ag1345
ag1350
ag1353
ag1354
aS"'"
ag1650
ag1365
ag1366
ag1369
ag1706
ag1738
ag1383
ag1399
ag1401
ag1408
ag1419
ag1423
ag1428
ag2014
ag2017
ag1432
ag1433
ag1438
ag1440
ag1444
ag1447
ag1456
ag2240
ag1470
ag2337
ag1472
ag1479
ag1486
ag2340
ag1500
ag1503
ag1504
ag1506
ag1508
ag1513
ag1516
ag2586
ag1527
ag1528
ag1533
ag1538
ag2688
ag1540
ag1542
ag1557
ag1558
ag1562
ag5005
ag1573
ag1574
ag1578
ag1579
ag2957
ag1590
ag1595
ag1598
ag1601
ag1602
ag3270
ag1619
ag1629
ag1640
ag1641
ag1642
ag1643
ag1645
ag1646
ag1647
ag1649
ag1653
ag1658
ag1660
ag1666
ag4495
ag1671
ag1677
ag1683
ag1692
ag1703
ag1705
ag1710
aS'l'
ag1716
ag1718
ag1719
ag1723
ag1724
ag1732
ag1735
ag1736
ag5672
ag1741
ag1743
ag1745
ag1746
ag1747
ag1749
ag1752
ag1758
ag1759
ag1763
ag1770
ag1773
ag1781
ag1784
ag1786
ag1789
ag1791
ag1792
ag1802
ag1803
ag1804
ag1806
ag1811
ag1813
ag1818
ag1820
ag1826
ag1828
ag1829
ag1842
ag1844
ag1846
ag1855
ag1857
ag1864
ag2401
ag1874
ag1886
ag1887
ag1889
ag1890
ag1895
ag1896
ag1900
ag1901
ag1902
ag1905
ag1906
ag1909
ag1919
ag1933
ag1935
ag338
ag1939
ag1950
ag5520
ag1958
ag1960
ag1961
ag1963
ag1964
ag1977
ag1980
ag1981
ag1982
ag1985
ag1992
ag1994
ag5762
ag1997
ag4506
ag2003
ag2006
ag2008
ag5498
ag2019
ag2025
ag2029
ag2030
ag2034
ag2043
ag2045
ag2050
ag2051
ag2053
ag2054
ag2057
ag2058
ag2060
ag2061
ag2066
ag6165
ag2083
ag2085
ag2087
ag2088
ag2090
ag2093
ag2096
ag364
ag2103
ag2105
ag2432
ag2126
ag2129
ag2134
ag120
ag2136
ag2142
ag2158
ag2166
ag2167
ag4578
ag2171
ag2172
ag2440
ag4579
ag2181
ag2183
ag2186
ag490
ag384
ag2192
ag2197
ag2198
ag2201
ag2212
ag2217
ag2224
ag2231
ag2232
ag2236
ag2248
ag2250
ag2258
ag2259
ag2261
ag2262
ag2269
ag2270
ag2271
ag2279
ag1164
ag2288
ag1988
ag403
ag2293
ag2300
ag2313
ag2320
ag1386
ag2325
ag2326
ag2328
ag2330
ag2333
ag2341
ag2346
ag2353
ag2355
ag2366
ag2369
ag2379
ag2474
ag2382
ag2477
ag2388
ag2391
ag2394
ag2399
ag2411
ag2413
ag2416
ag2421
ag2428
ag2433
ag2437
ag2451
ag2453
ag4628
ag2456
ag2457
ag2459
ag2465
ag2467
ag2495
ag2473
aS'7'
ag2480
ag2485
ag2488
ag2497
ag2498
ag915
ag2513
ag2516
ag2526
ag2690
ag2539
ag2549
ag2550
ag2881
ag2561
ag2565
ag2566
ag2567
ag2519
ag2583
ag2289
ag2592
ag2598
ag2600
ag2601
ag2606
ag2607
ag2611
ag2630
ag2634
ag2637
ag2640
ag3415
ag3429
ag3442
ag2649
ag2650
ag2658
ag2664
ag2672
ag4666
ag2675
ag2685
ag2686
ag2693
ag2694
ag2696
ag2699
ag3885
aS'e'
ag2704
ag2711
ag4378
ag2717
ag2720
ag2721
ag2724
ag2726
ag2727
ag4676
ag2735
ag2754
ag2767
ag2772
ag2775
ag4684
ag4380
ag2784
ag2788
ag2792
ag2796
ag2799
ag2800
ag2803
ag2809
ag2551
ag2814
ag2825
ag2826
ag2827
ag2835
ag22
ag2837
ag2838
aS'x'
ag2847
ag2851
ag4812
ag2862
ag511
ag4902
ag2893
ag2894
ag2900
ag2901
ag5107
ag6152
ag2915
ag5301
ag2939
ag2940
ag2943
ag2947
ag5380
ag2950
ag2951
ag2956
ag2962
ag2964
ag4778
ag2968
ag2970
ag2973
ag2974
ag537
ag2975
ag4722
ag594
ag2981
ag2984
ag4724
ag2991
ag2573
ag2994
ag2995
ag2999
ag3001
ag3005
ag3006
ag3008
ag3009
ag3015
ag3016
ag3018
ag3020
ag3023
ag3027
ag3043
ag3050
ag3051
ag3053
ag3063
ag3064
ag6168
ag3071
ag3072
ag3073
ag2587
ag2588
ag3076
ag3081
ag3085
ag3099
ag3115
ag3119
ag3121
ag3122
ag3132
ag3133
ag3135
ag3136
ag3151
ag3154
ag3157
ag3161
ag3164
ag3165
ag3166
ag3177
ag3178
ag3179
ag3180
ag3184
ag3185
ag3187
ag3189
ag3190
ag3192
ag3193
ag4761
ag3203
ag3209
ag3217
ag3218
ag3220
ag3221
ag2614
ag3229
ag962
ag3253
ag3260
ag3263
ag3268
ag3269
ag2622
ag3279
ag3282
ag4775
ag3291
ag3298
ag3299
ag3301
ag3311
ag3312
ag595
ag3319
ag3325
ag3326
ag5353
ag3336
ag3338
ag3339
ag3341
ag3342
ag3344
ag3345
ag3347
ag4785
ag3354
ag3357
ag3361
ag3362
ag3368
ag3369
ag2633
ag3385
ag3395
ag4788
ag3399
ag3402
ag4367
ag1827
ag3405
ag3406
ag3412
ag3414
ag3416
ag3417
ag3418
ag3422
ag3423
ag3424
ag3425
ag4795
ag3434
ag3435
ag4796
ag3436
ag3437
ag3439
ag3444
ag3447
ag3449
ag3456
ag3464
ag3467
ag3468
ag3475
ag3485
ag3488
ag3496
ag3499
ag3514
ag3523
ag3526
ag3531
ag3534
ag3535
ag3539
ag3540
ag3542
ag3547
ag3556
ag3562
ag3564
ag3570
ag3588
ag2871
ag3599
ag3603
ag3607
ag3608
ag3610
ag3614
ag3616
ag3618
ag3625
ag3626
ag4825
ag3639
ag5201
ag3643
ag4828
ag3649
ag3663
ag3677
ag3680
ag3684
ag4713
ag3690
ag4835
ag3703
ag2681
ag3714
ag3718
ag3724
ag3735
ag3739
ag3740
ag3720
ag3733
ag3756
ag3757
ag3762
ag3764
ag3770
ag3776
ag3777
ag3778
ag3779
ag3782
ag3785
ag3787
ag3788
ag3792
ag3801
ag4066
ag3809
ag3821
ag3823
ag3825
ag3840
ag3841
ag2695
ag3848
ag3851
ag3857
ag3859
ag4853
ag3870
ag3879
ag3881
ag2703
ag3893
ag3894
ag3896
ag3901
ag3905
aS'u'
ag3934
ag3938
ag4816
ag3941
ag4461
ag3944
ag4871
ag3946
ag4907
ag3954
ag3957
ag3959
ag3965
ag3967
ag3972
ag3974
ag3981
ag3993
ag3995
ag4001
ag4004
ag4011
ag4013
ag4015
ag4016
ag4880
ag4018
ag4025
ag4029
ag5354
ag4053
ag4065
ag4085
ag4086
ag4087
ag4891
ag4095
ag4097
ag4108
ag4895
ag4123
ag4124
ag4129
ag4131
ag4136
ag4138
ag4146
ag4153
ag4154
ag4156
ag4161
ag4165
ag4166
ag4172
ag4173
ag6131
ag4183
ag4190
ag4192
ag4194
ag4196
ag4201
ag4206
ag4208
ag4219
ag4223
ag4227
ag75
ag4235
ag4237
ag4238
ag4243
ag4247
ag4257
ag3483
ag4259
ag4260
ag4261
ag4262
ag4282
ag4790
ag4298
ag4327
ag4330
ag4331
ag4333
ag4335
ag4336
ag722
ag4341
ag4344
ag4352
ag4353
ag4356
ag4357
ag4359
ag4360
ag4369
ag4373
ag4374
ag4376
ag4396
ag4406
ag4941
ag4416
ag4423
ag4424
ag1329
ag4431
ag4436
ag4946
ag4446
ag4452
ag4453
ag4455
ag4457
ag4949
ag4468
ag4470
ag4471
ag783
ag4475
ag4477
ag4481
ag4487
ag1652
ag4492
ag4494
ag4496
ag4502
ag788
ag4505
ag4514
ag4516
ag4525
ag4540
ag4544
ag4551
ag4555
ag4568
ag4569
ag4570
ag2123
ag4573
ag4575
ag4576
ag4577
ag4582
ag4584
ag2228
ag4593
ag4596
ag4600
ag2412
ag4624
ag4625
aS')'
ag2542
ag4645
ag4648
ag4649
ag2594
ag4657
ag4659
ag4660
ag4667
ag4687
ag4689
ag4699
ag4701
ag4716
ag4996
ag4730
ag4731
ag5001
ag4760
ag4766
ag4767
ag4769
ag4772
ag4774
ag4776
ag4777
ag4784
ag4786
ag4792
ag4797
ag4801
ag4804
ag4809
ag4810
ag4813
ag3630
ag4829
ag4830
ag4831
ag4834
ag4837
ag4842
ag5016
ag4861
ag4868
ag4878
ag4879
ag1452
ag4889
ag4900
ag4906
ag4910
ag4920
ag5029
ag4934
ag5030
ag4938
ag4960
ag4961
ag4962
ag4965
ag4969
ag4974
ag4984
aS'n'
ag5004
ag5008
ag5009
ag5010
ag5011
ag5014
ag4843
ag5018
ag5021
ag2884
ag5025
ag887
ag5035
ag5042
ag5043
ag5048
ag5045
ag5047
ag5061
ag5064
ag5067
ag5076
ag5080
ag5081
ag5083
ag5084
ag5089
ag5091
ag5092
ag5095
ag895
ag2902
ag5057
ag5105
ag5118
ag5120
ag5125
ag5126
ag5127
ag5141
ag5145
ag5152
ag5157
ag5158
ag5159
ag5160
ag5162
ag5164
ag5169
ag5170
ag5172
ag5176
ag5186
ag5195
ag5196
ag5203
ag5205
ag5209
ag5210
ag5216
ag5217
ag5221
ag5224
ag5226
ag5250
ag5255
ag5261
ag5267
ag5273
ag5277
ag5282
ag192
ag5302
ag5304
ag5310
ag5314
ag5318
ag5319
ag5320
ag5337
ag5338
ag5339
ag5102
ag5362
ag5365
ag5368
ag5376
ag5053
ag5378
ag5385
ag5392
ag5397
ag5399
ag5400
ag5406
ag5407
ag5411
ag5432
ag5435
ag5441
ag5449
ag5459
ag5460
ag1094
ag5471
ag5474
ag5477
ag5479
ag5483
ag5486
ag5488
ag5501
ag5503
ag5506
ag5515
ag5517
ag5519
ag5266
ag5134
ag5522
ag5524
ag5528
ag5531
ag5536
ag5548
ag5552
ag1655
ag5554
ag5567
ag5577
ag5578
ag5580
ag5581
ag5582
ag5586
ag5587
ag5592
ag5598
ag5601
ag5607
ag5609
ag5610
ag5611
ag5612
ag5615
ag5630
ag5634
ag4711
ag5638
ag5640
ag5641
ag5644
ag5649
ag5652
ag5655
ag5658
ag5664
ag5668
ag5669
ag5676
ag5684
ag5685
ag5690
ag5695
ag5697
ag2490
ag5702
ag5705
ag5708
ag5709
ag5710
ag5717
ag5718
ag5728
ag5734
ag5738
ag5741
ag5745
ag5747
ag5756
ag5761
ag5768
ag5770
ag2926
ag5789
ag5792
ag5800
ag5801
ag5811
ag5814
ag5817
ag5820
ag5827
ag3174
ag3199
ag5837
ag5846
ag5871
ag5872
ag5877
ag5878
ag5881
ag5883
ag5886
ag5892
ag5893
ag5907
ag5912
ag5914
ag5915
ag5918
ag5920
ag5921
ag5924
ag5929
ag5930
ag5935
ag5938
ag5939
ag5940
ag5944
ag5946
ag5957
ag5961
ag5211
ag5971
ag5972
ag5973
ag5974
ag5975
ag3169
ag5983
ag4309
ag5994
ag1041
ag6017
ag6019
ag6020
ag6023
ag6024
ag6025
ag6040
ag6041
ag6048
ag6052
ag6059
ag6061
ag6064
ag6066
ag6068
ag6069
ag6075
ag6078
ag6081
ag6083
ag4887
ag6097
ag6098
ag6099
ag6100
ag6105
ag6106
ag6107
ag6109
ag6124
ag6125
ag6128
ag6132
ag6143
ag6145
ag5355
ag6148
ag6151
ag6153
ag6156
ag6162
ag5248
ag6163
ag4319
ag6179
ag5617
ag6185
ag6199
ag6202
ag5755
ag6221
ag6227
ag6228
ag6229
ag5257
ag6239
ag6246
ag6250
ag6251
ag6252
ag6253
ag6259
ag6260
ag6265
ag6266
ag6269
ag6271
ag6274
ag6279
ag6280
ag6283
ag6288
ag6290
ag6293
ag6296
ag6301
ag6302
ag6304
ag6278
ag3640
ag9
ag32
ag13
ag15
ag18
ag19
ag24
ag29
ag1101
ag48
ag278
ag51
ag62
ag63
ag66
ag70
ag72
ag73
ag74
ag2638
ag83
ag86
ag87
ag94
ag97
ag98
ag99
ag100
ag105
ag109
ag111
ag114
ag116
ag117
ag123
ag1118
ag135
ag145
ag146
ag153
ag5290
ag157
ag158
ag159
ag164
ag176
ag179
ag180
ag182
ag186
ag189
ag194
ag201
ag205
ag206
ag207
ag209
ag211
ag213
ag214
ag229
ag232
ag236
ag240
ag242
ag243
ag244
ag259
ag265
ag1555
ag273
ag1597
ag279
ag1604
ag282
ag294
ag297
ag299
ag1744
ag318
ag320
ag321
ag322
ag325
ag328
ag329
ag330
ag335
ag5322
ag1954
ag341
ag343
ag345
ag348
ag356
ag370
ag372
ag3141
ag5700
ag379
ag381
ag387
ag390
ag5692
ag392
ag393
ag394
ag398
ag2365
ag436
ag438
ag439
ag440
ag466
ag467
ag469
ag470
ag474
ag478
ag480
ag3162
ag487
ag496
ag499
ag504
ag507
ag508
ag510
ag515
ag521
ag527
ag532
ag534
ag538
ag539
ag540
ag543
ag545
ag3170
ag553
ag554
ag555
ag556
ag1177
ag560
ag562
ag565
ag570
ag5357
ag576
ag579
ag580
ag585
aS'2'
ag588
ag599
ag613
ag3419
ag621
ag3182
ag647
ag648
ag649
ag650
ag665
ag666
ag668
ag670
ag671
ag674
ag681
ag682
ag683
ag690
ag695
ag700
ag1566
ag704
ag705
ag706
ag713
ag717
ag731
ag732
ag742
ag743
ag750
ag752
ag753
ag755
ag763
ag767
ag777
ag778
ag781
ag787
ag796
ag800
ag806
ag4594
ag808
ag811
ag813
ag4617
ag815
ag4622
ag830
ag848
ag853
ag858
ag863
ag868
ag5412
ag872
ag873
ag874
ag880
ag5413
ag882
ag883
ag5022
ag885
ag888
ag5415
ag889
ag891
ag894
ag900
ag903
ag904
ag905
ag1233
ag911
ag914
ag917
ag922
ag923
ag924
ag927
ag930
ag934
ag4618
ag936
ag939
ag942
ag947
ag1150
ag955
ag961
ag963
ag964
ag966
ag5504
ag971
ag1242
ag973
ag974
ag975
ag977
aS'w'
ag983
ag987
ag989
ag991
ag5439
ag999
ag1003
ag1014
ag1016
ag1019
ag1022
ag5444
ag5932
ag1032
ag5966
ag1046
ag1047
ag1049
ag1055
ag1056
ag1057
ag1058
ag1066
ag1071
ag1072
ag1077
ag1078
ag1082
ag1084
ag1087
ag1088
ag1093
ag1847
ag1099
ag1104
ag6043
ag1111
ag1113
ag1114
ag1115
ag1117
ag1123
ag1125
ag1126
ag5333
ag263
ag1138
ag3953
ag1154
ag1158
ag1161
ag3722
ag1165
ag1167
ag1169
ag1170
ag1171
ag1274
ag1178
ag1179
ag1184
ag1192
ag1193
ag1194
ag1195
ag1198
ag677
ag749
ag1212
ag1213
ag3111
ag1222
ag1223
ag1224
ag1226
ag1228
ag5484
ag1235
ag1237
ag1253
ag1254
ag1256
ag1257
ag1261
ag1264
ag1273
ag1283
ag1292
ag1300
ag1302
ag1304
ag1307
ag1312
ag1359
ag1317
ag1318
ag1327
ag5500
ag1336
ag1337
ag1338
ag1341
ag1355
ag1356
ag3307
ag1357
ag1361
ag6086
ag1371
ag1373
ag1375
ag1376
ag1389
ag1390
ag1391
ag1394
ag1396
ag1402
ag1404
ag1407
ag1411
ag1412
ag1421
ag1422
ag1427
ag1431
ag3321
ag1434
ag1441
ag1446
ag1450
ag1451
ag1457
ag1461
ag2244
ag1463
ag1464
ag1465
ag1466
ag2362
ag1480
ag1481
ag1490
ag1491
ag1492
ag2475
ag1495
ag1496
ag1497
ag1498
ag1340
ag1510
ag1515
ag1517
ag3332
ag1529
ag1530
ag1534
ag1541
ag2706
ag1544
ag1548
ag2770
ag1553
ag1556
ag1561
ag1563
ag1567
ag1568
ag2905
ag1571
ag1576
ag1582
ag1589
ag1592
ag1599
ag1600
ag5537
ag1607
ag1609
ag1620
ag1621
ag1625
ag1626
ag1630
ag1631
ag1635
ag5371
ag3367
ag1661
ag1663
ag1673
ag1674
ag1675
ag5857
ag1684
ag1685
ag1687
ag1698
ag1702
ag3791
ag1704
ag1709
ag1711
ag1726
ag1731
ag1378
ag1739
ag2431
ag1761
ag1385
ag1782
ag1783
ag4439
ag1785
ag1788
ag1793
ag1799
ag4535
ag1805
ag1807
ag1810
ag1814
ag1817
ag1819
ag1821
ag1822
ag1823
ag1824
ag1832
ag1834
ag1851
ag1852
ag4873
ag1856
ag1858
ag1859
ag1863
ag1870
ag1872
ag1873
ag1876
ag1877
ag1882
ag1884
ag1888
ag1891
ag1892
ag1898
ag5187
ag1910
ag1915
ag1916
ag1918
ag1921
ag1924
ag2448
ag1946
ag1948
ag1949
ag1955
ag1957
ag1966
ag1967
ag1969
ag1970
ag1974
aS'p'
ag3427
ag3883
ag1998
ag2001
ag2005
ag2009
ag2010
ag2015
ag2016
ag2020
ag5922
ag2035
ag2036
ag2046
ag1436
ag2052
ag2055
ag5629
ag2062
ag2063
ag2065
ag2067
ag2068
ag2072
ag2073
ag2074
ag2075
ag2077
ag2081
ag2086
ag2089
ag2092
ag2098
ag2100
ag2101
ag2102
ag2108
ag2109
ag2110
ag2115
ag2116
ag2132
ag2137
ag2138
ag2139
ag134
ag2141
ag2143
ag2146
ag2148
ag2151
ag2157
ag2159
ag2160
ag2163
ag2174
ag2180
ag462
ag2191
ag2194
ag2195
ag3455
ag2205
ag3457
ag3153
ag2209
ag2214
ag4239
ag2219
ag2222
ag2230
ag2233
ag2234
ag2239
ag2246
ag2251
ag997
ag3469
ag2264
ag2265
ag2272
ag2273
ag2280
ag2282
ag2284
ag2286
ag2303
ag2304
ag2305
ag1149
ag2309
ag2310
ag2316
ag2327
ag2329
ag2331
ag2334
ag2336
ag2338
ag2339
ag1487
ag2342
ag2343
ag1535
ag2361
ag2364
ag2367
ag2373
ag2374
ag2375
ag2383
ag3494
ag2390
ag5678
ag2392
ag2393
ag2397
ag3500
ag2405
ag2414
ag2417
ag2419
ag2420
ag2422
ag2427
ag2429
ag2434
ag2442
ag2445
ag2447
ag2455
ag3042
ag2460
ag2462
ag5693
ag2466
ag3510
ag2471
ag2476
ag2478
ag2479
ag2481
ag2482
ag2483
ag3513
ag2487
ag2492
ag2500
ag5706
ag2518
ag2521
ag2522
ag2531
ag2532
ag2534
ag5714
ag2541
ag2544
ag2546
ag2548
ag2553
ag2555
ag2556
ag2560
ag2562
ag2568
ag2572
ag2575
ag2576
ag2577
ag2581
ag2584
ag2585
ag1520
ag2609
ag2610
ag2613
ag2615
ag2616
ag2620
ag2623
ag2624
ag2626
aS'$'
ag2627
ag2632
ag2635
ag4082
ag2647
ag2652
ag2653
ag2654
ag2655
ag2660
ag2662
ag2669
ag2673
ag2674
ag2676
ag2677
ag2682
ag2687
ag3803
ag2697
ag2709
ag2712
ag2715
ag2718
ag937
ag3559
ag2739
ag2743
ag2745
ag2747
aS';'
ag2750
ag2753
ag3565
ag2755
ag2757
ag2764
ag2765
ag2771
ag2777
ag2781
ag2782
ag2785
ag2787
ag2816
ag2793
ag2795
ag3574
ag2798
ag2802
ag2806
ag3576
ag2815
ag2818
ag3579
ag2830
ag4694
ag4704
ag2833
ag2836
ag2842
ag2843
ag2849
ag2852
ag2853
ag3587
ag2863
ag2864
ag2869
ag2870
ag2872
ag2873
ag2875
ag2876
ag2877
ag2878
ag2879
ag2880
ag2883
ag2886
ag2889
ag2892
ag2908
ag2912
ag1797
ag2919
ag2921
ag2928
ag2942
ag2944
ag5793
ag2945
ag2954
ag2966
ag2969
ag2971
ag2977
ag2987
aS'i'
ag2992
ag2998
ag3000
ag3003
ag3007
ag3010
ag5869
ag3012
ag3026
ag3039
ag3040
ag3046
ag3047
ag1596
ag129
ag3057
ag3059
ag6146
ag3066
ag3068
ag3074
ag3079
ag3084
ag3086
ag3092
ag3094
ag3097
ag3102
ag3103
ag3104
ag3108
ag3116
ag3117
ag245
ag3124
ag3127
ag3129
ag327
ag3134
ag3143
ag3144
ag3156
ag5828
ag3159
ag3160
ag3167
ag3183
ag3188
ag3204
ag3206
ag3208
ag3210
ag3213
ag3215
ag896
ag3222
ag3233
ag3235
ag3240
ag3242
ag3244
ag3252
ag3274
ag3280
ag3283
ag3284
ag3286
ag3289
ag3293
ag3297
ag3304
ag3315
ag3672
ag3323
ag3327
ag3335
ag3337
ag3340
ag3351
ag3352
ag3355
ag1623
ag3360
ag3363
ag3364
ag3366
ag3370
ag3372
ag3374
ag3378
ag3382
ag3386
ag3388
ag3394
ag3398
ag3403
ag3409
ag3691
ag3698
ag1962
ag3430
ag3702
ag3431
ag1644
ag3438
ag3704
ag3445
ag3446
ag3448
ag3450
ag3451
ag3454
ag3706
ag3458
ag3459
ag3462
ag3463
ag3465
ag5870
ag3471
ag3473
ag3476
ag3478
ag3480
ag3490
ag3491
ag3492
ag3497
ag3501
ag5874
ag3504
ag1755
ag3517
ag3527
ag3546
ag3550
ag3554
ag3558
ag3560
ag3563
ag3568
ag5885
ag3575
ag3577
ag3578
ag3316
ag3580
ag3589
ag3590
ag3594
ag1670
ag3597
ag2897
ag3601
ag3602
ag3604
ag3605
ag3606
ag3609
ag3613
ag3617
ag3619
ag3732
ag5121
ag3635
ag3637
ag3641
ag3642
ag3650
ag3652
ag3655
ag3657
ag3662
ag3674
ag3675
ag3676
ag3678
ag3333
ag3681
ag3685
ag3696
ag3421
ag3705
ag3477
ag3711
ag3712
ag3717
ag3744
ag3721
ag3726
ag3738
ag5712
ag3745
ag3747
ag3748
ag3749
ag3750
ag3752
ag3753
ag3754
ag3759
ag3761
ag3768
ag3774
ag3775
ag3780
ag3781
ag3784
ag3790
ag3793
ag3795
ag4037
ag3813
ag3814
ag3816
ag3831
ag3832
ag3838
ag1714
ag3845
ag3850
ag3854
ag3858
ag3860
ag3861
ag3862
ag3863
ag3865
ag3867
ag3875
ag3887
ag3888
ag3890
ag3891
ag3895
ag3897
ag3898
ag3913
ag3917
ag3922
ag3927
ag3929
ag3931
ag3936
ag3942
ag3943
ag3947
ag4885
ag3951
ag3958
ag3960
ag4971
ag3968
ag3969
ag3973
ag3975
ag3978
ag3980
ag3996
ag4000
ag4003
ag4005
ag5949
ag4017
ag4019
ag4024
ag4026
ag4031
ag4036
ag5370
ag4039
ag4040
ag4041
ag4042
ag4044
ag4046
ag4048
ag4051
ag4054
ag3804
ag4057
ag3805
ag4072
ag4073
ag4081
ag5955
ag4096
ag4099
ag4101
ag4102
ag4106
ag5978
ag4111
aS'b'
ag5959
ag4113
ag5113
ag4127
ag4137
ag4139
ag4141
ag4144
ag4147
ag4155
ag4171
ag4175
ag4178
ag4180
ag4187
ag4193
ag6217
ag4198
ag4200
ag4202
ag4205
aS'4'
ag4218
ag4224
ag4228
ag4229
ag4241
ag4242
ag4245
ag4264
ag4265
ag4273
ag4279
ag4286
ag4287
ag4288
ag4290
ag4291
ag4305
ag4313
ag4315
ag4316
ag4318
ag4323
ag1774
ag4340
ag4343
ag4355
ag4358
ag4362
ag4365
ag4371
ag4379
ag4383
ag995
ag4386
ag4401
ag4403
ag4407
ag1145
ag4409
ag4410
ag4414
ag4419
ag4420
ag3866
ag4427
ag4434
ag4438
ag4450
ag4454
ag4456
ag4458
ag4460
ag4463
ag4472
ag4473
ag4483
ag4498
ag4500
ag4504
ag4507
ag4509
ag4510
ag4521
ag4522
ag4523
ag4524
ag6030
ag4537
ag4539
ag5175
ag4543
ag4546
ag4553
ag4566
ag4567
ag4574
ag638
ag4581
ag4586
ag4589
ag4590
ag4597
ag4598
ag4599
ag4605
ag4615
ag4623
ag4626
ag4629
ag6046
ag4632
ag4634
ag4641
ag4642
ag4646
ag4647
ag4651
ag4661
ag3916
ag4669
ag4671
ag4672
ag4678
ag4680
ag4693
ag4696
ag4698
ag4700
ag4702
ag4703
ag4705
ag4706
ag4712
ag4726
ag4728
ag4729
ag4733
ag4735
ag4736
ag4737
ag4741
ag4744
ag4751
ag4755
ag4757
ag6067
ag4764
ag4771
ag4773
ag4780
ag4782
ag4791
ag4802
ag3502
ag4805
ag4806
ag4807
ag4814
ag4817
ag4822
ag4827
ag3646
ag1611
ag4832
ag4836
ag4847
ag4851
ag4852
ag4854
ag4855
ag4858
ag4862
ag4865
ag4867
ag4870
ag3945
ag4882
ag3948
ag6085
ag4896
ag4898
ag4128
ag4901
ag4903
ag4905
ag3952
ag4911
ag4912
ag4914
ag4916
ag4917
ag4918
aS'-'
ag4928
ag4930
ag4932
ag4944
ag4945
ag4950
ag4954
ag5981
ag4957
ag4964
ag4968
ag4970
ag4973
ag4976
ag4978
ag4981
ag4986
ag4987
ag4988
ag4989
ag4992
ag4993
ag4994
ag3970
ag5013
ag5017
ag5019
ag5039
ag5046
ag5049
ag5058
ag5059
ag5060
ag5063
ag5065
ag5066
ag5068
ag5069
ag5072
ag5075
ag5079
ag5086
ag5093
ag5094
ag5098
ag5099
ag5108
ag5110
ag5115
ag5116
ag5117
ag5124
ag5487
ag5129
ag5132
ag5136
ag3998
ag5144
ag6111
ag5146
ag5148
ag4400
ag5156
ag5167
ag5168
ag5174
ag5180
ag5181
ag4006
ag5183
ag5184
ag5185
ag5200
ag5215
ag5219
ag5227
ag5228
ag5234
ag5245
ag5246
ag5252
ag5262
ag5279
ag5283
ag5291
ag5294
ag5296
ag5298
ag3511
ag5309
ag5313
ag5316
ag5317
ag5323
ag5324
ag5330
ag5335
ag5344
ag5352
ag5358
ag5359
ag5364
ag5381
ag5387
ag5388
ag5390
ag5391
ag5394
ag799
ag5403
ag851
ag4045
ag5420
ag5421
ag5428
ag5436
ag5438
ag5443
ag5447
ag5451
ag5455
ag1081
ag5464
ag5470
ag5475
ag5476
ag5480
ag5481
ag5485
ag1953
ag1280
ag5493
ag5496
ag5497
ag1398
ag5514
ag1551
ag4071
ag5532
ag5533
ag6169
ag5542
ag5544
ag5546
ag5551
ag5553
ag5556
ag5564
ag5565
ag5566
ag5568
ag5569
ag5570
ag5572
ag5573
ag5584
ag5590
ag5599
ag5600
ag5602
ag5603
ag5604
ag5618
ag5619
ag5621
ag5626
ag5627
ag5631
ag5637
ag5643
ag5648
ag1978
ag5651
ag5656
ag6189
ag5663
ag6192
ag5671
ag5673
ag2372
ag5680
ag5686
ag5694
ag5698
ag5703
ag5704
ag5711
ag5715
ag5720
ag5725
ag5727
ag5731
ag5748
ag5750
ag5754
ag6211
ag5766
ag5769
ag5782
ag2932
ag5790
ag5795
ag5797
ag5799
ag6218
ag5807
ag5810
ag5821
ag5822
ag5824
ag5834
ag5835
ag5840
ag5841
ag5844
ag5850
ag5851
ag5854
ag5860
ag5864
ag5866
ag5876
ag5884
ag5891
ag5894
ag5895
ag5908
ag5909
ag5917
ag5931
ag5934
ag5943
ag5945
ag2028
ag5952
ag5968
ag4295
ag5984
ag4300
aS'&'
ag5986
ag5987
ag5988
ag5989
ag5991
ag5993
ag4391
ag6009
ag6010
ag6011
ag6014
ag6261
ag6021
ag6022
ag6035
ag6037
ag6038
ag6056
ag6065
ag5657
ag6273
ag6077
ag6080
ag6087
ag6091
ag6093
ag6094
ag6104
ag6110
ag5150
ag6116
ag6118
ag6121
ag6282
ag6133
ag6135
ag5281
ag6138
ag6140
ag6142
ag6286
ag6159
ag6160
ag6167
ag6178
ag6182
ag4948
ag6184
ag6292
ag6188
ag6204
ag6205
ag5746
ag6209
ag6213
ag6215
ag6233
ag6235
ag6237
ag6243
ag6245
ag6247
ag6254
ag6263
ag6264
ag6272
ag6275
ag6276
ag6284
ag6289
ag6291
ag6297
ag6299
ag6303
ag6305
ag8
ag10
ag4217
ag16
ag20
ag27
ag28
ag4222
ag56
ag60
ag2122
ag2779
ag71
ag76
ag77
ag82
ag92
ag96
ag102
ag106
ag110
ag112
ag113
ag121
ag128
ag131
ag136
ag142
ag150
ag4246
ag161
ag163
ag165
ag36
ag2324
ag170
ag173
ag175
ag177
ag178
ag183
ag185
ag4253
ag1188
ag195
ag196
ag197
ag198
ag210
ag218
ag219
ag221
ag222
ag226
ag233
ag238
ag239
ag241
ag252
ag254
ag257
ag262
ag267
ag269
ag272
ag276
ag762
ag280
ag286
ag287
ag288
ag1679
ag296
ag303
ag304
ag305
ag310
ag333
ag346
ag347
ag2004
ag351
ag352
ag57
ag360
ag361
ag362
ag363
ag365
ag366
ag369
ag2128
ag377
ag378
ag6000
ag382
ag385
ag386
ag396
ag397
ag404
ag405
ag407
ag411
ag412
ag3798
ag421
ag422
ag423
ag67
ag429
ag430
ag432
ag437
ag441
ag443
ag2504
ag445
ag451
ag6300
ag461
ag465
ag468
ag473
ag476
ag477
ag481
ag484
ag486
ag2731
ag2187
ag492
ag497
ag500
ag503
ag513
ag517
ag2890
ag522
ag524
ag528
ag533
ag541
ag547
ag559
ag566
ag581
ag582
ag583
ag584
ag587
ag589
ag590
ag4314
ag597
ag601
ag603
ag606
ag624
ag628
ag2996
ag640
ag641
ag659
ag663
ag664
ag675
ag678
ag679
ag684
ag685
ag687
ag697
ag710
ag716
ag3994
ag721
ag723
ag724
ag727
ag729
ag730
ag738
ag744
ag745
ag747
ag758
ag760
ag4345
ag770
ag772
ag782
ag786
ag4503
ag791
ag801
ag4354
ag818
ag823
ag2218
ag828
ag833
ag835
ag838
ag841
ag842
ag844
ag845
ag846
ag847
ag852
ag854
ag856
ag857
ag861
ag870
ag890
ag893
aS'6'
ag913
ag140
ag919
ag929
ag5306
ag935
ag941
ag954
ag4377
ag965
ag970
ag2245
ag2249
ag980
ag5614
ag984
ag988
ag992
ag993
ag3710
ag994
ag4384
ag1002
ag1004
ag1005
ag1012
ag1028
ag1029
ag1030
ag1033
ag1037
ag1038
ag1048
ag1065
ag6136
ag1079
ag1085
ag1086
ag1089
ag1090
ag1097
ag1120
ag1128
ag1129
ag1130
ag1131
ag1132
ag1134
ag1142
ag1144
ag4408
ag1147
aS'd'
ag374
ag1156
ag1157
ag1159
ag1160
ag1181
ag1185
ag1189
ag1191
ag1196
ag1197
ag1199
ag1205
ag1208
ag1219
ag1221
ag1225
ag834
ag1232
ag1234
ag1236
ag1238
ag1243
ag1244
ag1009
ag1249
ag1259
ag1239
ag1297
ag1303
ag1306
ag1374
ag1321
ag1322
ag1324
ag1325
ag1328
ag1330
ag1332
ag1334
ag1339
ag1346
ag4435
ag1352
ag1360
ag1362
ag2319
ag1379
ag1381
ag1384
ag1387
ag1392
ag1395
ag1400
ag235
ag1403
ag1405
ag1406
ag1413
ag1415
ag1416
ag1420
ag1429
ag1430
ag1435
ag5589
ag1445
ag1448
ag1453
ag1454
ag1462
ag1469
ag1473
ag1474
ag1476
ag1478
ag1482
ag1483
ag1484
ag1485
ag1493
ag1507
ag1509
ag1514
ag1521
ag1522
ag1531
ag1536
ag1543
ag1549
ag2348
ag2350
ag1569
ag1572
ag1580
ag1583
ag1584
ag1585
ag1587
ag1588
ag3017
ag1593
ag1594
ag4479
ag1603
ag1605
ag156
ag1610
ag4640
ag1613
ag1616
ag1617
ag1627
ag1632
ag1633
ag1636
ag1637
ag1639
ag4490
ag1651
ag1667
ag1669
ag1672
ag3621
ag1676
ag1678
ag4499
ag1691
ag1695
ag1696
ag1700
ag1701
ag1708
ag1712
ag3839
ag1715
ag1720
ag1721
ag1722
ag1725
ag1727
ag1729
ag1730
ag1733
ag1734
ag1737
ag4058
ag1742
ag1750
ag1753
ag1756
ag1757
ag1760
ag1762
ag1764
ag1765
ag1767
ag1772
ag1777
ag1779
ag1787
ag4518
ag1790
ag1796
ag1801
ag1809
ag1812
ag1815
ag1816
ag1830
ag1838
ag1839
ag1841
ag1849
ag1853
ag319
ag1861
ag1866
ag1867
ag1868
ag1878
ag1880
ag1883
ag1897
ag1899
ag1903
ag1904
ag1907
ag5212
ag1914
ag1917
ag1920
ag1922
ag1926
ag1927
ag1928
ag1929
ag1931
ag1932
ag1938
ag1942
ag1943
ag1947
ag1951
ag1952
ag1956
ag1971
ag1972
ag1979
ag1986
ag1989
ag1990
ag1991
ag1993
ag1999
ag2000
ag2024
ag2027
ag2031
ag2032
ag2033
ag2037
ag2038
ag2040
ag2044
ag2047
ag2049
ag6032
ag2069
ag2070
ag2079
ag2084
ag6208
ag2099
ag2106
ag2107
ag2111
ag2112
ag2113
ag2117
ag2118
ag2121
ag2124
ag2125
ag5913
ag2135
ag126
ag2140
ag2145
ag2147
ag2156
ag2161
ag2162
ag2164
ag2170
ag2439
ag2178
ag2179
ag2184
ag2185
ag2188
ag535
ag2199
ag2200
ag2203
ag2207
ag2211
ag2221
ag2225
ag2226
ag869
ag2229
ag2454
ag2242
ag2243
ag2247
ag2256
ag2267
ag2274
ag2275
ag2277
ag2278
ag2283
ag2285
aS't'
ag2287
ag2464
ag1247
ag2298
ag2301
ag2306
ag2315
ag2318
ag1377
ag2322
ag2323
ag2344
ag2347
ag1550
ag2349
ag2351
ag2352
ag2359
ag2363
ag1634
ag2380
ag2387
ag1840
ag2395
ag2402
ag2404
ag2406
ag2407
ag2408
ag2409
ag2415
ag2418
ag2423
ag2424
ag2425
ag2430
ag2435
ag2436
ag2168
ag2438
ag2443
ag2444
ag2446
ag2449
ag2450
ag2491
ag2458
ag2468
ag2472
ag2484
ag2486
ag2496
ag2503
ag2505
ag2506
ag2507
ag2510
ag2512
ag2517
ag3679
ag2525
ag2527
ag2528
ag2533
ag2540
ag450
ag2543
ag2547
ag2552
ag2821
ag455
ag2564
ag5540
ag2571
ag4650
ag2578
ag2580
ag2589
ag2590
ag2591
ag3112
ag2597
ag2599
ag2602
ag2604
ag2605
ag2612
ag2617
ag2618
ag2619
ag4654
ag2629
ag2631
ag2636
ag2639
ag2644
ag2651
ag2656
ag2657
ag2659
ag2661
ag2665
ag4663
ag2667
ag2671
ag2678
ag2679
ag2680
ag2705
ag2707
ag2708
ag2713
ag2722
ag2723
ag2729
ag2732
ag2733
ag2734
ag4677
ag2736
ag2737
ag2738
ag2741
ag2751
ag2756
ag2760
ag2761
ag2762
ag2766
ag2768
ag2776
ag2783
ag2790
ag4437
ag2797
ag2801
ag2804
ag2805
ag2811
ag2819
ag2822
ag2823
ag2828
ag2829
ag2832
ag2846
ag2861
ag2866
ag2559
ag2887
ag2896
ag2899
ag2906
ag2911
ag2916
aS'('
ag2917
ag4707
ag4708
ag2924
ag526
ag2930
ag2931
ag5295
ag2936
ag2938
ag2946
ag2958
ag2960
ag2965
ag2976
ag2978
ag2980
ag2983
ag2989
ag3011
ag3013
ag3019
aS'?'
ag3025
ag3028
ag3032
ag3033
ag3034
ag3035
ag3036
ag3037
ag3038
ag3052
ag3054
ag3055
ag3056
ag3065
ag3075
ag3078
ag3080
ag3083
ag3095
ag3096
ag3098
ag3113
ag4746
ag3125
ag3126
ag3128
ag3139
ag3147
ag3148
ag3149
ag3150
ag3152
ag3168
ag3172
ag3173
ag3176
ag3186
ag575
ag3194
ag3195
ag3197
ag3200
ag3201
ag3202
ag3207
ag3211
ag3214
ag3226
ag3231
ag3234
ag3236
ag3238
ag3239
ag3247
ag3248
ag3249
ag1043
ag3254
ag3256
ag3258
ag3259
ag3262
ag1092
ag3264
ag3265
ag3266
ag591
ag3273
ag3275
ag3277
ag5518
aS'm'
ag3281
ag3285
ag3290
ag3292
ag3295
ag2874
ag3300
ag3308
ag3310
ag3313
ag3320
ag3328
ag3329
ag4781
ag3334
ag1539
ag4783
ag3371
ag3376
ag3377
ag3379
ag3381
ag3387
ag3389
ag3390
ag3391
ag3393
ag1766
ag3400
ag3401
ag3408
ag3411
ag3413
ag619
ag3433
ag3441
ag3452
ag3453
ag3466
ag3472
ag3481
ag3482
ag3486
ag3487
ag2376
ag3503
ag3505
ag3512
ag3520
ag3521
ag5561
ag3528
ag3530
ag3536
ag3538
ag5996
ag3541
ag3543
ag3545
ag2670
ag3569
ag3572
ag3573
ag3581
ag3582
ag3584
ag3585
ag3586
ag2854
ag3591
ag3593
ag3595
ag3600
ag2907
ag2914
ag2759
ag3620
ag3622
ag3623
ag3624
ag3627
ag3631
ag3633
ag3634
ag3636
ag3644
ag3645
ag3648
ag3651
ag3654
ag3656
ag3658
ag3659
ag3227
ag3661
ag3664
ag3665
ag3666
ag3668
ag3669
ag3671
ag3686
ag3687
ag3688
ag3692
ag3697
ag3701
ag3707
ag3708
ag3709
ag3713
ag3715
ag3716
ag3723
ag3727
ag3729
ag3736
ag3741
ag3742
ag3771
ag3794
ag3802
ag3806
ag3807
ag3812
ag3818
ag3822
ag3829
ag3835
ag693
ag3842
ag3843
ag3844
ag3846
ag3847
ag3849
ag3852
ag3853
ag3855
ag3864
ag3868
ag3872
ag3880
ag3882
ag3886
ag3889
ag3902
ag3903
ag3906
ag709
ag3909
ag3910
ag3911
ag3912
ag3918
ag3919
ag3920
ag3925
ag3926
ag3930
ag3935
ag3939
ag3940
ag4872
ag3949
ag3950
ag3961
ag3962
ag3966
ag3982
ag2714
ag3983
ag3985
ag3986
ag3987
ag3988
ag3989
ag3991
ag3997
ag2716
ag4008
aS'!'
ag4014
ag4021
ag4023
ag4030
ag4032
ag4038
ag4061
ag4062
ag4067
ag4068
ag5383
ag4075
ag4077
ag4078
ag4079
ag4083
ag4084
ag4088
ag4091
ag4092
ag4098
ag4104
ag4105
ag4107
ag5742
ag4109
ag4110
ag4112
ag4117
ag4126
ag4899
ag4130
ag4132
ag4133
ag4134
ag4140
ag4145
ag4151
aS'8'
ag4157
ag4158
ag4159
ag4160
ag4162
ag4163
ag4167
ag4170
ag4174
ag4177
ag4179
ag2569
ag4181
ag4185
ag4186
ag4189
ag4191
ag4195
ag4197
ag4199
ag4207
ag4211
ag4212
ag4214
ag4215
ag4216
ag4947
ag4231
ag4234
ag4252
ag4254
ag4258
ag4266
ag5928
ag4271
ag4274
ag4276
ag4281
ag4285
ag4289
ag4292
ag4293
ag4294
ag4299
ag4303
ag4308
ag4311
ag4317
ag4927
ag4320
ag4326
ag4328
ag4329
ag4332
ag4337
ag4342
ag4346
ag4348
ag4349
ag4363
ag4368
ag4370
ag4375
ag4382
ag4387
ag4389
ag4392
ag4393
ag4395
ag4397
ag4411
ag4415
ag4417
ag4425
ag3061
ag4428
ag4430
ag4432
ag4444
ag1414
ag2794
ag4478
ag4486
ag4489
ag4493
ag4511
ag4512
ag4515
ag4519
ag5880
ag4527
ag4529
ag4530
ag4533
ag4534
ag4545
ag4552
ag4554
ag2808
ag4571
ag4580
ag4585
ag4587
ag4709
ag4592
ag2990
ag4595
ag4601
ag4603
ag4604
ag4606
ag4608
ag4609
ag4611
ag4613
ag4620
ag4621
ag1591
ag4633
ag4636
ag4652
ag4653
ag4655
ag4664
ag4665
ag4668
ag4670
ag4673
ag5328
ag4682
ag4683
ag4690
ag4691
ag4692
ag4697
ag4714
ag6183
ag4717
ag4723
ag4725
ag4727
ag4734
ag4743
ag4745
ag4750
ag4756
ag4759
ag4765
ag4768
ag4789
ag2844
ag4793
ag4798
ag849
ag4811
ag4833
ag3694
ag4839
ag4841
ag4846
ag4848
ag4849
ag4850
ag4859
ag4863
ag4866
ag4869
ag4876
ag4877
ag4881
ag4886
ag4888
ag4890
ag4093
ag4892
ag4893
ag4894
ag4114
ag2865
ag4904
ag4908
ag2868
ag4919
ag4923
ag4924
ag4931
ag4933
ag4935
ag4939
ag4942
ag4955
ag5032
ag4958
ag4959
ag4963
ag4591
ag4979
ag4982
ag4990
ag4991
ag5002
ag5007
ag5012
ag5040
ag5020
ag5027
ag4956
ag5034
ag5036
ag5037
ag5041
ag5044
ag5050
ag5051
ag5054
ag5055
ag5056
ag5062
ag5070
ag5071
ag5073
ag5074
ag5077
ag5087
ag5288
ag5311
ag5097
ag5106
ag5112
ag5128
ag5131
ag5133
ag5138
ag5142
ag5143
ag5147
ag5608
ag5151
ag5154
ag5155
ag5890
ag5166
ag5182
ag5189
ag5190
ag5191
ag5193
ag5204
ag5214
aS'1'
ag5225
ag5229
ag5232
ag5239
ag5241
ag5242
ag5249
ag5253
ag5254
ag5256
ag2925
ag5258
ag5259
ag5264
ag5269
ag5270
ag5275
ag5276
ag5284
ag5285
ag5286
ag5287
ag154
ag5293
ag2935
ag5297
ag5300
ag5308
ag5312
ag5325
ag5329
ag5342
ag5347
ag5349
ag5356
ag5103
ag5360
ag630
ag5367
ag5369
ag5373
ag5377
ag5379
ag2948
ag741
ag5382
ag5384
ag5386
ag5389
ag5393
ag5396
ag5398
ag807
ag5401
ag5402
ag5404
ag5408
ag5409
ag5414
ag5416
ag5418
ag5188
ag5423
ag5429
ag5434
ag5437
ag5440
ag5450
ag5453
ag5456
ag5457
ag5469
ag1140
ag5472
ag5492
ag5494
ag5495
ag5499
ag5502
ag5505
ag5511
ag5512
ag5529
ag5534
ag5539
ag1606
ag5541
ag5543
ag5545
ag5547
ag5139
ag5555
ag1751
ag5574
ag5575
ag5576
ag5579
ag5583
ag5585
ag5588
ag5606
ag5620
ag5623
ag2048
ag5625
ag5628
ag5633
ag5639
ag5642
ag5645
ag5650
ag5653
ag5654
ag5659
ag5662
ag5667
ag3506
ag5675
ag5677
ag5679
ag5682
ag5687
ag5688
ag5689
ag5165
ag5699
ag2493
ag2514
ag5713
ag5721
ag5724
ag5737
ag5739
ag5740
ag5751
ag5753
ag5759
ag5764
ag5765
ag5767
ag5177
ag5771
ag5788
ag5791
ag5794
ag5798
ag5802
ag5805
ag5812
ag5813
ag5815
ag5816
ag5818
ag5823
ag5830
ag5832
ag5833
ag5836
ag3219
ag5838
ag5839
ag5843
ag3261
ag5847
ag5853
ag5855
ag5856
ag5858
ag5859
ag5861
ag5863
ag5865
ag5887
ag5888
ag5896
ag5897
ag5900
ag5901
ag5902
ag5905
ag5906
ag5192
ag5916
ag5919
ag5923
ag5925
ag5926
ag3021
ag5936
ag5937
ag5950
ag5951
ag5954
ag5956
ag5960
ag5963
ag5774
ag5985
ag5998
ag6004
ag6005
ag6008
ag4443
ag6015
ag6016
ag6018
ag6027
ag6031
ag6034
ag6039
ag4627
ag6045
ag6047
ag6051
ag6054
ag6057
ag6060
ag6070
ag5231
ag6073
ag6089
ag6090
ag6095
ag3049
ag6101
ag6103
ag5090
ag6108
ag6113
ag6119
ag6120
ag6122
ag6123
ag6126
ag6130
ag6134
ag6147
ag6157
ag6158
ag6161
ag6170
ag6171
ag6172
ag3067
ag6180
ag6181
ag6190
ag6191
ag6193
ag6194
ag6195
ag6196
ag6197
ag6198
ag6200
ag6201
ag3069
ag6206
ag6212
ag6214
ag6216
ag6220
ag6230
ag6236
ag6248
ag6267
ag6281
ag6285
ag6287
ag6295
ag1546
ag14
ag17
ag30
ag33
ag34
ag35
ag166
ag38
ag200
ag41
ag234
ag44
ag45
ag46
ag258
ag54
ag55
ag1106
ag59
ag64
ag65
ag426
ag68
ag79
ag81
ag84
ag85
ag89
ag95
ag635
ag691
ag115
ag118
ag122
ag124
ag125
ag127
ag133
ag137
ag138
ag139
ag5757
ag141
ag143
ag144
ag147
ag148
ag160
ag171
ag172
ag187
ag191
ag1965
ag208
ag464
ag212
ag1275
ag220
ag1343
ag224
ag230
ag5052
ag247
ag248
ag249
ag250
ag251
ag255
ag256
ag260
ag264
ag5307
ag274
ag275
ag277
ag281
ag283
ag284
ag291
ag292
ag4372
ag300
ag301
ag1146
ag306
ag308
ag313
ag314
ag316
ag1871
ag326
ag331
ag332
ag340
ag344
ag353
aS'o'
ag357
ag358
ag359
ag380
ag383
ag395
ag399
ag400
ag401
ag3146
ag410
ag413
ag414
ag415
ag2354
ag424
ag427
ag431
ag5336
ag435
ag4936
ag452
ag2554
ag459
ag460
ag479
ag483
ag501
ag502
ag505
ag506
ag509
ag514
ag516
ag518
ag519
ag5345
ag525
ag529
ag530
ag531
ag542
ag546
ag561
ag3130
ag563
ag564
ag568
ag571
ag572
ag574
ag578
ag586
ag3250
ag3255
ag592
ag596
ag600
ag604
ag605
ag607
ag608
ag610
ag2895
ag612
ag614
ag615
ag616
ag617
ag625
ag626
ag629
ag3181
ag631
ag632
ag636
ag637
ag639
ag642
ag643
ag644
ag645
ag646
ag3555
ag654
ag655
ag657
ag658
ag660
ag662
ag667
ag669
ag672
ag673
ag676
ag680
ag3760
ag3786
ag694
ag696
ag701
ag3871
ag703
ag3878
ag707
ag712
ag714
ag5375
ag718
ag4056
ag733
ag734
ag735
ag739
ag4204
ag751
ag754
ag4306
ag761
ag764
ag765
ag766
ag768
ag771
ag774
ag775
ag776
ag779
ag780
ag4474
ag784
ag785
ag1214
ag793
ag794
ag795
ag797
ag1220
ag809
ag810
ag814
ag816
ag820
ag822
ag4823
ag825
ag827
ag4681
ag832
ag836
ag839
ag840
ag855
ag860
ag865
ag875
ag879
ag884
ag886
ag892
ag898
ag901
ag906
ag910
ag916
ag920
ag925
ag926
ag928
ag931
ag938
ag943
ag5422
ag945
ag949
ag951
ag953
ag3237
ag967
ag969
ag972
ag5430
ag978
ag985
ag986
ag990
ag998
ag1000
ag1248
ag1013
ag1015
ag1017
ag1024
ag5927
ag2502
ag1042
ag1044
ag1050
ag1051
ag6074
ag1054
ag1059
ag1061
aS'#'
ag1062
ag1063
ag5452
ag1067
ag1070
ag1073
ag1074
ag1075
ag5458
ag1083
ag5463
ag1091
ag1095
ag1098
ag1102
ag1105
ag1107
ag1108
ag1109
ag1110
ag1112
ag3267
ag1116
ag5467
ag1121
ag1124
ag1127
ag1135
ag1136
ag1139
ag1141
ag1151
ag1163
ag1166
ag3276
ag1174
ag1175
ag1180
ag1183
aS':'
ag1190
ag3278
ag1201
ag1202
ag1203
ag1207
ag1210
ag1211
ag1215
ag1218
ag4168
ag1227
ag5482
ag1231
ag1246
ag6268
ag1250
ag1251
ag1255
ag1258
ag1260
ag1262
ag1263
ag1265
ag1267
ag1272
ag1278
ag1281
ag1284
ag1286
ag1287
ag1288
ag1289
ag1290
ag1301
ag1293
ag1299
ag1305
ag1309
ag1310
ag1311
ag1313
ag1315
ag1316
ag1319
ag1320
ag1323
ag4418
ag6092
ag1342
ag1347
ag1348
ag1565
ag3309
ag1358
ag1314
ag1363
ag1364
ag1367
ag1370
ag1372
ag1380
ag3314
ag1388
ag1393
ag1397
ag5510
ag1409
ag1410
ag1417
ag1424
ag1425
ag1426
ag3322
ag1437
ag1439
ag3324
ag1449
ag1455
ag1458
ag1459
ag1460
ag3271
ag1467
ag1468
ag1471
ag1488
ag1489
ag1494
ag1499
ag1501
ag1502
ag1505
ag1511
ag1518
ag1519
ag1524
ag1525
ag1526
ag1532
ag1537
ag1545
ag1547
ag5527
ag193
ag1552
ag1559
ag1560
ag1564
ag3343
ag1570
ag3346
ag1575
ag1581
ag1586
ag1608
ag1612
ag1614
ag1615
ag1618
ag3356
ag1622
ag1624
ag1628
ag3331
ag1638
ag5898
ag1654
ag1656
ag1657
ag1659
ag3532
ag1662
ag1664
ag1665
ag1368
ag1680
ag1681
ag1682
ag3660
ag1689
ag1690
ag1693
ag1694
ag1699
ag1707
ag1717
ag3384
ag1728
ag3928
ag4070
ag1748
ag5571
ag1754
ag4164
ag4182
ag4225
ag1768
ag1769
ag1771
ag1775
ag1776
ag1778
ag4491
ag1794
ag1795
ag1798
ag1800
ag1808
ag1825
ag3404
ag4674
ag1831
ag1833
ag1835
ag1836
ag5593
ag1843
ag1845
ag5597
ag1854
ag1860
ag1862
ag1865
ag1869
ag1875
ag1879
ag1881
ag1908
ag1911
ag1913
ag1930
ag1934
ag1937
ag1940
ag1941
ag1944
ag1945
ag5461
ag5466
ag1959
ag1968
ag1973
ag1975
ag1976
ag1983
ag1984
ag5681
ag1987
ag1995
ag1996
ag2002
ag2007
ag2011
ag2013
ag2018
ag2021
ag2022
ag2023
ag2039
ag2041
ag2042
ag6002
ag5624
ag2056
ag5982
ag2059
ag2064
ag2071
ag2076
ag2078
ag2080
ag2082
ag2094
ag2095
ag2097
ag2114
ag4925
ag2119
ag2120
ag2130
ag2131
ag2144
ag2153
ag2154
ag2155
ag337
ag2173
ag2176
ag2177
ag453
ag2189
aS'3'
ag2202
ag2204
ag2206
ag2208
ag2210
ag2215
ag2216
ag2220
ag2223
ag2227
ag2237
ag2241
ag2961
ag2255
ag2266
ag2276
ag2281
ag1155
ag2290
ag2291
ag2294
ag2295
ag2297
ag2308
ag2312
ag2314
ag2317
ag2321
ag1382
ag2332
ag1443
ag2335
ag2345
ag2356
ag2358
ag2360
ag2368
ag2370
ag2371
ag2377
ag2381
ag2384
ag1477
ag2385
ag2389
ag2396
ag1848
ag2398
ag2410
ag2252
aS'a'
ag2441
ag6176
ag2452
ag2461
ag2463
ag2469
ag2470
ag3024
ag2489
ag2494
ag2499
ag2501
ag2511
ag2515
ag2520
ag2523
ag2524
ag2529
ag2530
ag2535
ag2536
ag2537
ag2538
ag2545
ag1512
ag2807
ag3524
ag2557
ag2563
ag2570
ag2574
ag2579
ag2582
ag2593
ag2595
ag2596
ag5729
ag2603
ag2608
ag3230
ag2625
ag2628
ag2641
ag2642
ag2645
ag2646
ag2648
ag5733
ag3519
ag2663
ag2666
ag2668
ag6298
ag2683
ag2684
ag5743
ag2689
ag2691
ag2692
ag2698
ag2700
ag2701
ag2702
ag2710
ag2719
ag2725
ag2728
ag2740
ag2744
ag2746
ag2748
ag2749
ag2752
ag2758
ag2763
ag2769
ag2773
ag2774
ag2778
ag2780
ag2786
ag2791
ag1554
ag2810
ag2812
ag2813
ag5763
ag2817
ag2820
ag2824
ag2831
ag2834
ag2839
ag2840
ag2841
ag2845
ag2848
ag2850
ag5772
ag2857
ag2859
ag2860
ag2867
ag4909
ag3592
ag5775
ag5776
ag2882
ag2885
ag2888
ag2891
ag2898
ag2903
ag2904
ag2909
ag2910
ag2913
ag5785
ag2918
ag2920
ag2922
ag2923
ag2927
ag2929
ag2933
ag2934
ag2937
ag2941
ag5374
ag2949
ag2953
ag2955
ag2959
ag2972
ag2979
ag2982
ag5660
ag2985
ag2986
ag5716
ag2988
ag2993
ag2997
ag3002
ag3004
ag3014
ag3022
ag3029
ag3030
ag3031
ag5804
ag5806
ag3041
ag5808
ag3045
ag3048
ag5809
ag3058
ag3060
ag3062
ag6166
ag3070
ag3077
ag3082
ag3088
ag3089
ag3090
ag3091
ag3093
ag5773
ag3100
ag3105
ag3106
ag3107
ag162
ag3109
ag3110
ag204
ag3114
ag1020
ag3118
ag3120
ag3123
ag290
ag3131
ag3137
ag3138
ag3140
ag375
ag3142
ag3145
ag5826
ag3158
ag3163
ag552
ag3171
ag3175
aS','
ag698
ag3191
ag3196
ag3198
ag3212
ag3216
ag3223
ag3224
ag3232
ag3243
ag3245
ag3246
ag3251
ag3257
ag3272
ag1204
ag3287
ag3288
ag3294
ag3296
ag3302
ag3303
ag3305
ag3306
ag3317
ag3318
ag1523
ag488
ag3348
ag3349
ag3353
ag3358
ag3359
ag3101
ag3365
ag3373
ag3380
ag3383
ag3392
ag3396
ag3397
ag3689
ag3407
ag3410
ag1893
ag1912
ag3420
ag3426
ag3432
ag2091
ag3440
ag3443
ag2165
ag2196
ag5867
ag1648
ag3460
ag3461
ag2238
ag3470
ag3474
ag3479
ag3484
ag3489
ag3493
ag3495
ag2403
ag5875
ag3507
ag3508
ag3509
ag3515
ag3518
ag3522
ag3525
ag3529
ag3533
ag3537
ag3544
ag3548
ag3549
ag3551
ag3552
ag3553
ag3557
ag2742
ag3561
ag3566
ag3567
ag3571
ag3583
ag3596
ag3598
ag3611
ag3612
ag3615
ag3628
ag3629
ag3632
ag3638
ag3647
ag3653
ag3667
ag3673
ag3682
ag3683
ag3375
ag3693
ag3695
ag3699
ag3700
ag5903
ag3743
ag3719
ag3725
ag3730
ag3731
ag3734
ag3737
ag3746
ag3751
ag3758
ag3763
ag3765
ag3766
ag3767
ag202
ag3769
ag3773
ag3783
ag3755
ag3789
ag4002
ag3796
ag3797
ag3799
ag6007
ag4059
ag3808
ag3810
ag3811
ag3815
ag3817
ag3819
ag3824
ag3827
ag3828
ag3830
ag1713
ag3833
ag3834
ag3836
ag3837
ag843
ag3856
ag4381
ag4388
ag3869
ag4441
ag3873
ag3874
ag3876
ag3877
ag3884
ag4538
ag3772
ag3892
ag3899
ag3904
ag3907
ag3908
ag5933
ag3914
ag3915
ag3921
ag3923
ag3924
ag3933
ag3937
ag3820
ag3955
ag3956
ag4953
ag3963
ag3964
ag4997
ag3971
ag3977
ag5038
ag3984
ag3992
ag5140
ag3999
ag4007
ag4009
ag4010
ag4012
ag4020
ag4022
ag4027
ag4028
ag4033
ag4034
ag5419
ag4047
ag4049
ag4052
ag4055
ag4060
ag4063
ag4069
ag4074
ag4080
ag4090
ag4094
ag4103
ag5780
ag4115
ag4116
ag4118
ag4119
ag4120
ag4121
ag4122
ag4125
ag4135
ag4142
ag4143
ag6001
ag4148
ag4149
ag4150
ag4152
ag4169
ag5964
ag4176
ag6112
ag5965
ag4184
ag4188
ag5967
ag4209
ag5969
ag4221
ag4230
ag4232
ag4233
ag101
ag4240
ag4244
ag4249
ag4250
ag4251
ag190
ag4255
ag271
ag4263
ag4267
ag4268
ag4269
ag4270
ag4272
ag4275
ag4277
ag4278
ag4283
ag4284
ag457
ag4296
ag4297
ag4301
ag495
ag4304
ag4307
ag4312
ag4321
ag4322
ag4324
ag4325
ag5990
ag2378
ag3225
ag4347
ag4350
ag4351
ag4361
ag4364
ag4366
ag4385
ag4394
ag4398
ag4399
ag4402
ag4404
ag4405
ag1153
ag4412
ag4413
ag1894
ag4421
ag1780
ag4426
ag1308
ag4531
ag1335
ag1349
ag1351
ag2621
ag4440
ag4442
ag4445
ag4447
ag4448
ag4449
ag4451
ag4459
ag804
ag4462
ag4464
ag4465
ag4466
ag4467
ag4469
ag4476
ag4480
ag4482
ag4484
ag4488
ag4497
ag1688
ag4501
ag4508
ag1740
ag4513
ag4517
ag4520
ag6028
ag4526
ag1850
ag4528
ag4532
ag4536
ag4541
ag4542
ag4547
ag4548
ag4549
ag4550
ag4556
ag4557
ag4558
ag4559
ag4560
ag4561
ag4562
ag4563
ag4564
ag4565
ag2104
ag4572
ag2175
ag4583
ag4588
ag2257
ag2260
ag4602
ag5852
ag4607
ag4610
ag4612
ag4614
ag4616
ag4619
ag4630
ag4635
ag4637
ag4638
ag4639
ag4643
ag4644
ag4656
ag4658
ag2643
ag4662
ag4675
ag6053
ag4679
ag4685
ag4686
ag4688
ag4695
ag5223
ag4710
ag2952
ag4715
ag2963
ag2967
ag4718
ag4719
ag4720
ag4721
ag4738
ag4739
ag4740
ag4742
ag4747
ag4748
ag4752
ag4754
ag3670
ag4758
ag573
ag4762
ag4763
ag4770
ag3932
ag4779
ag4787
ag4794
ag4799
ag4800
ag3498
ag4803
ag4808
ag4815
ag4818
ag4819
ag4820
ag4821
ag4824
ag4826
ag4838
ag4840
ag3800
ag4844
ag4845
ag4856
ag4857
ag4860
ag3900
ag4864
ag6256
ag4874
ag4875
ag996
ag4035
ag4883
ag6084
ag4897
ag5948
ag4913
ag4220
ag4915
ag4256
ag4921
ag4922
ag4926
ag4929
ag4966
ag4338
ag2730
ag4937
ag4940
ag4943
ag4951
ag4952
ag4967
ag4972
ag4975
ag4977
ag4980
ag4983
ag4985
ag4995
ag4998
ag4999
ag5000
ag4749
ag5003
ag5006
ag5015
ag633
ag5023
ag5024
ag5026
ag5028
ag5031
ag1885
ag419
ag3979
ag5078
ag5082
ag5085
ag5088
ag5096
ag5100
ag5101
ag5104
ag3990
ag5109
ag5111
ag5114
ag5446
ag5119
ag5122
ag5123
ag5130
ag5135
ag5137
ag26
ag5149
ag5153
ag5661
ag5665
ag5161
ag5163
ag5171
ag5173
ag5178
ag5179
ag6117
ag5194
ag5197
ag5198
ag5199
ag5202
ag5207
ag5208
ag5213
ag692
ag5218
ag5220
ag5222
ag6062
ag5233
ag5235
ag5236
ag5237
ag5238
ag5240
ag6129
ag5243
ag5244
ag5247
ag5251
ag5263
ag5265
ag5647
ag5268
ag5271
ag5272
ag5280
ag5289
ag5292
ag184
ag5299
ag5303
ag5315
ag6139
ag5321
ag355
ag5326
ag5327
ag3330
ag5331
ag5332
ag5334
ag5340
ag5341
ag5343
ag5346
ag5350
ag5351
ag558
ag5361
ag5363
ag634
ag5366
ag699
ag5372
ag5395
ag1577
ag5405
ag4043
ag5410
ag881
ag5417
ag944
ag5424
ag5425
ag5426
ag5427
ag912
ag5431
ag5433
ag6155
ag5442
ag1021
ag5445
ag1040
ag5448
ag1064
ag5454
ag5462
ag5465
ag4050
ag5468
ag5473
ag5478
ag5490
ag5507
ag5508
ag5509
ag5513
ag5516
ag1475
ag5521
aS'5'
ag5523
ag5525
ag5526
ag5535
ag5538
ag5549
ag5550
ag5557
ag5558
ag5559
ag5560
ag4076
ag1686
ag5562
ag5563
ag1697
ag5305
ag5591
ag5594
ag5595
ag5596
ag5605
ag4732
ag5613
ag5616
ag5622
ag5632
ag5635
ag5636
ag2182
ag6187
ag2235
ag2026
ag5666
ag2311
ag5670
ag5674
ag5683
ag5691
ag5696
ag5701
ag4100
ag2508
ag5707
ag5719
ag5722
ag5723
ag5726
ag5730
ag1418
ag5732
ag5735
ag5736
ag5744
ag5749
ag5752
ag5758
ag5760
ag2789
ag4064
ag2855
ag2856
ag2858
ag5777
ag5779
ag5781
ag5783
ag5784
ag5786
ag5787
ag5796
ag5803
ag3044
ag2357
ag6223
ag3155
ag5829
ag5831
ag3228
ag5842
ag5845
ag5848
ag5862
ag5868
ag5873
ag2012
ag5879
ag5882
ag5889
ag1923
ag5899
ag5904
ag5910
ag1076
ag5911
ag3826
ag6240
ag5941
ag5942
ag3976
ag5947
ag5953
ag5958
ag5962
ag4210
ag5970
ag4226
ag5976
ag5977
ag5979
ag5980
ag4302
ag5992
ag5995
ag5997
ag5999
ag6255
ag6257
ag6006
ag4422
ag6012
ag6013
ag6026
ag6029
ag6033
ag6036
ag3205
ag6042
ag6044
ag4631
ag6049
ag6050
ag6055
ag6058
ag6063
ag4753
ag6071
ag6072
ag6076
ag6079
ag6082
ag4884
ag6277
ag6096
ag6102
ag6114
ag6115
ag5206
ag6127
ag5278
ag6137
ag6141
ag6144
ag3516
ag6149
ag6150
ag6154
ag6164
ag6173
ag6174
ag6175
ag2509
ag6177
ag6186
ag6203
ag6207
ag6210
ag472
ag6222
ag5825
ag6224
ag6225
ag6226
ag5849
ag6231
ag6232
ag6234
ag6238
ag6241
ag6242
ag6244
ag6249
ag4203
ag2296
ag6003
ag6258
ag6270
ag4213
ag6294
ag6219
ag6262
ag6306
asb.